
AVRASM ver. 2.1.30  C:\Users\Label\Documents\micro\Sistema-de-Monitoramento-Residencial\Release\List\SECURITY_SYSTEM.asm Mon Jul 13 19:49:17 2026

C:\Users\Label\Documents\micro\Sistema-de-Monitoramento-Residencial\Release\List\SECURITY_SYSTEM.asm(1059): warning: Register r4 already defined by the .DEF directive
C:\Users\Label\Documents\micro\Sistema-de-Monitoramento-Residencial\Release\List\SECURITY_SYSTEM.asm(1060): warning: Register r7 already defined by the .DEF directive
C:\Users\Label\Documents\micro\Sistema-de-Monitoramento-Residencial\Release\List\SECURITY_SYSTEM.asm(1061): warning: Register r6 already defined by the .DEF directive
C:\Users\Label\Documents\micro\Sistema-de-Monitoramento-Residencial\Release\List\SECURITY_SYSTEM.asm(1062): warning: Register r9 already defined by the .DEF directive
                 
                 
                 ;CodeVisionAVR C Compiler V2.05.0 Advanced
                 ;(C) Copyright 1998-2010 Pavel Haiduc, HP InfoTech s.r.l.
                 ;http://www.hpinfotech.com
                 
                 ;Chip type                : ATmega16
                 ;Program type             : Application
                 ;Clock frequency          : 14,745600 MHz
                 ;Memory model             : Small
                 ;Optimize for             : Size
                 ;(s)printf features       : int, width
                 ;(s)scanf features        : int, width
                 ;External RAM size        : 0
                 ;Data Stack size          : 256 byte(s)
                 ;Heap size                : 0 byte(s)
                 ;Promote 'char' to 'int'  : Yes
                 ;'char' is unsigned       : Yes
                 ;8 bit enums              : Yes
                 ;global 'const' stored in FLASH: Yes
                 ;Enhanced core instructions    : On
                 ;Smart register allocation     : On
                 ;Automatic register allocation : On
                 
                 	#pragma AVRPART ADMIN PART_NAME ATmega16
                 	#pragma AVRPART MEMORY PROG_FLASH 16384
                 	#pragma AVRPART MEMORY EEPROM 512
                 	#pragma AVRPART MEMORY INT_SRAM SIZE 1119
                 	#pragma AVRPART MEMORY INT_SRAM START_ADDR 0x60
                 
                 	#define CALL_SUPPORTED 1
                 
                 	.LISTMAC
                 	.EQU UDRE=0x5
                 	.EQU RXC=0x7
                 	.EQU USR=0xB
                 	.EQU UDR=0xC
                 	.EQU SPSR=0xE
                 	.EQU SPDR=0xF
                 	.EQU EERE=0x0
                 	.EQU EEWE=0x1
                 	.EQU EEMWE=0x2
                 	.EQU EECR=0x1C
                 	.EQU EEDR=0x1D
                 	.EQU EEARL=0x1E
                 	.EQU EEARH=0x1F
                 	.EQU WDTCR=0x21
                 	.EQU MCUCR=0x35
                 	.EQU GICR=0x3B
                 	.EQU SPL=0x3D
                 	.EQU SPH=0x3E
                 	.EQU SREG=0x3F
                 
                 	.DEF R0X0=R0
                 	.DEF R0X1=R1
                 	.DEF R0X2=R2
                 	.DEF R0X3=R3
                 	.DEF R0X4=R4
                 	.DEF R0X5=R5
                 	.DEF R0X6=R6
                 	.DEF R0X7=R7
                 	.DEF R0X8=R8
                 	.DEF R0X9=R9
                 	.DEF R0XA=R10
                 	.DEF R0XB=R11
                 	.DEF R0XC=R12
                 	.DEF R0XD=R13
                 	.DEF R0XE=R14
                 	.DEF R0XF=R15
                 	.DEF R0X10=R16
                 	.DEF R0X11=R17
                 	.DEF R0X12=R18
                 	.DEF R0X13=R19
                 	.DEF R0X14=R20
                 	.DEF R0X15=R21
                 	.DEF R0X16=R22
                 	.DEF R0X17=R23
                 	.DEF R0X18=R24
                 	.DEF R0X19=R25
                 	.DEF R0X1A=R26
                 	.DEF R0X1B=R27
                 	.DEF R0X1C=R28
                 	.DEF R0X1D=R29
                 	.DEF R0X1E=R30
                 	.DEF R0X1F=R31
                 
                 	.EQU __SRAM_START=0x0060
                 	.EQU __SRAM_END=0x045F
                 	.EQU __DSTACK_SIZE=0x0100
                 	.EQU __HEAP_SIZE=0x0000
                 	.EQU __CLEAR_SRAM_SIZE=__SRAM_END-__SRAM_START+1
                 
                 	.MACRO __CPD1N
                 	CPI  R30,LOW(@0)
                 	LDI  R26,HIGH(@0)
                 	CPC  R31,R26
                 	LDI  R26,BYTE3(@0)
                 	CPC  R22,R26
                 	LDI  R26,BYTE4(@0)
                 	CPC  R23,R26
                 	.ENDM
                 
                 	.MACRO __CPD2N
                 	CPI  R26,LOW(@0)
                 	LDI  R30,HIGH(@0)
                 	CPC  R27,R30
                 	LDI  R30,BYTE3(@0)
                 	CPC  R24,R30
                 	LDI  R30,BYTE4(@0)
                 	CPC  R25,R30
                 	.ENDM
                 
                 	.MACRO __CPWRR
                 	CP   R@0,R@2
                 	CPC  R@1,R@3
                 	.ENDM
                 
                 	.MACRO __CPWRN
                 	CPI  R@0,LOW(@2)
                 	LDI  R30,HIGH(@2)
                 	CPC  R@1,R30
                 	.ENDM
                 
                 	.MACRO __ADDB1MN
                 	SUBI R30,LOW(-@0-(@1))
                 	.ENDM
                 
                 	.MACRO __ADDB2MN
                 	SUBI R26,LOW(-@0-(@1))
                 	.ENDM
                 
                 	.MACRO __ADDW1MN
                 	SUBI R30,LOW(-@0-(@1))
                 	SBCI R31,HIGH(-@0-(@1))
                 	.ENDM
                 
                 	.MACRO __ADDW2MN
                 	SUBI R26,LOW(-@0-(@1))
                 	SBCI R27,HIGH(-@0-(@1))
                 	.ENDM
                 
                 	.MACRO __ADDW1FN
                 	SUBI R30,LOW(-2*@0-(@1))
                 	SBCI R31,HIGH(-2*@0-(@1))
                 	.ENDM
                 
                 	.MACRO __ADDD1FN
                 	SUBI R30,LOW(-2*@0-(@1))
                 	SBCI R31,HIGH(-2*@0-(@1))
                 	SBCI R22,BYTE3(-2*@0-(@1))
                 	.ENDM
                 
                 	.MACRO __ADDD1N
                 	SUBI R30,LOW(-@0)
                 	SBCI R31,HIGH(-@0)
                 	SBCI R22,BYTE3(-@0)
                 	SBCI R23,BYTE4(-@0)
                 	.ENDM
                 
                 	.MACRO __ADDD2N
                 	SUBI R26,LOW(-@0)
                 	SBCI R27,HIGH(-@0)
                 	SBCI R24,BYTE3(-@0)
                 	SBCI R25,BYTE4(-@0)
                 	.ENDM
                 
                 	.MACRO __SUBD1N
                 	SUBI R30,LOW(@0)
                 	SBCI R31,HIGH(@0)
                 	SBCI R22,BYTE3(@0)
                 	SBCI R23,BYTE4(@0)
                 	.ENDM
                 
                 	.MACRO __SUBD2N
                 	SUBI R26,LOW(@0)
                 	SBCI R27,HIGH(@0)
                 	SBCI R24,BYTE3(@0)
                 	SBCI R25,BYTE4(@0)
                 	.ENDM
                 
                 	.MACRO __ANDBMNN
                 	LDS  R30,@0+(@1)
                 	ANDI R30,LOW(@2)
                 	STS  @0+(@1),R30
                 	.ENDM
                 
                 	.MACRO __ANDWMNN
                 	LDS  R30,@0+(@1)
                 	ANDI R30,LOW(@2)
                 	STS  @0+(@1),R30
                 	LDS  R30,@0+(@1)+1
                 	ANDI R30,HIGH(@2)
                 	STS  @0+(@1)+1,R30
                 	.ENDM
                 
                 	.MACRO __ANDD1N
                 	ANDI R30,LOW(@0)
                 	ANDI R31,HIGH(@0)
                 	ANDI R22,BYTE3(@0)
                 	ANDI R23,BYTE4(@0)
                 	.ENDM
                 
                 	.MACRO __ANDD2N
                 	ANDI R26,LOW(@0)
                 	ANDI R27,HIGH(@0)
                 	ANDI R24,BYTE3(@0)
                 	ANDI R25,BYTE4(@0)
                 	.ENDM
                 
                 	.MACRO __ORBMNN
                 	LDS  R30,@0+(@1)
                 	ORI  R30,LOW(@2)
                 	STS  @0+(@1),R30
                 	.ENDM
                 
                 	.MACRO __ORWMNN
                 	LDS  R30,@0+(@1)
                 	ORI  R30,LOW(@2)
                 	STS  @0+(@1),R30
                 	LDS  R30,@0+(@1)+1
                 	ORI  R30,HIGH(@2)
                 	STS  @0+(@1)+1,R30
                 	.ENDM
                 
                 	.MACRO __ORD1N
                 	ORI  R30,LOW(@0)
                 	ORI  R31,HIGH(@0)
                 	ORI  R22,BYTE3(@0)
                 	ORI  R23,BYTE4(@0)
                 	.ENDM
                 
                 	.MACRO __ORD2N
                 	ORI  R26,LOW(@0)
                 	ORI  R27,HIGH(@0)
                 	ORI  R24,BYTE3(@0)
                 	ORI  R25,BYTE4(@0)
                 	.ENDM
                 
                 	.MACRO __DELAY_USB
                 	LDI  R24,LOW(@0)
                 __DELAY_USB_LOOP:
                 	DEC  R24
                 	BRNE __DELAY_USB_LOOP
                 	.ENDM
                 
                 	.MACRO __DELAY_USW
                 	LDI  R24,LOW(@0)
                 	LDI  R25,HIGH(@0)
                 __DELAY_USW_LOOP:
                 	SBIW R24,1
                 	BRNE __DELAY_USW_LOOP
                 	.ENDM
                 
                 	.MACRO __GETD1S
                 	LDD  R30,Y+@0
                 	LDD  R31,Y+@0+1
                 	LDD  R22,Y+@0+2
                 	LDD  R23,Y+@0+3
                 	.ENDM
                 
                 	.MACRO __GETD2S
                 	LDD  R26,Y+@0
                 	LDD  R27,Y+@0+1
                 	LDD  R24,Y+@0+2
                 	LDD  R25,Y+@0+3
                 	.ENDM
                 
                 	.MACRO __PUTD1S
                 	STD  Y+@0,R30
                 	STD  Y+@0+1,R31
                 	STD  Y+@0+2,R22
                 	STD  Y+@0+3,R23
                 	.ENDM
                 
                 	.MACRO __PUTD2S
                 	STD  Y+@0,R26
                 	STD  Y+@0+1,R27
                 	STD  Y+@0+2,R24
                 	STD  Y+@0+3,R25
                 	.ENDM
                 
                 	.MACRO __PUTDZ2
                 	STD  Z+@0,R26
                 	STD  Z+@0+1,R27
                 	STD  Z+@0+2,R24
                 	STD  Z+@0+3,R25
                 	.ENDM
                 
                 	.MACRO __CLRD1S
                 	STD  Y+@0,R30
                 	STD  Y+@0+1,R30
                 	STD  Y+@0+2,R30
                 	STD  Y+@0+3,R30
                 	.ENDM
                 
                 	.MACRO __POINTB1MN
                 	LDI  R30,LOW(@0+(@1))
                 	.ENDM
                 
                 	.MACRO __POINTW1MN
                 	LDI  R30,LOW(@0+(@1))
                 	LDI  R31,HIGH(@0+(@1))
                 	.ENDM
                 
                 	.MACRO __POINTD1M
                 	LDI  R30,LOW(@0)
                 	LDI  R31,HIGH(@0)
                 	LDI  R22,BYTE3(@0)
                 	LDI  R23,BYTE4(@0)
                 	.ENDM
                 
                 	.MACRO __POINTW1FN
                 	LDI  R30,LOW(2*@0+(@1))
                 	LDI  R31,HIGH(2*@0+(@1))
                 	.ENDM
                 
                 	.MACRO __POINTD1FN
                 	LDI  R30,LOW(2*@0+(@1))
                 	LDI  R31,HIGH(2*@0+(@1))
                 	LDI  R22,BYTE3(2*@0+(@1))
                 	LDI  R23,BYTE4(2*@0+(@1))
                 	.ENDM
                 
                 	.MACRO __POINTB2MN
                 	LDI  R26,LOW(@0+(@1))
                 	.ENDM
                 
                 	.MACRO __POINTW2MN
                 	LDI  R26,LOW(@0+(@1))
                 	LDI  R27,HIGH(@0+(@1))
                 	.ENDM
                 
                 	.MACRO __POINTBRM
                 	LDI  R@0,LOW(@1)
                 	.ENDM
                 
                 	.MACRO __POINTWRM
                 	LDI  R@0,LOW(@2)
                 	LDI  R@1,HIGH(@2)
                 	.ENDM
                 
                 	.MACRO __POINTBRMN
                 	LDI  R@0,LOW(@1+(@2))
                 	.ENDM
                 
                 	.MACRO __POINTWRMN
                 	LDI  R@0,LOW(@2+(@3))
                 	LDI  R@1,HIGH(@2+(@3))
                 	.ENDM
                 
                 	.MACRO __POINTWRFN
                 	LDI  R@0,LOW(@2*2+(@3))
                 	LDI  R@1,HIGH(@2*2+(@3))
                 	.ENDM
                 
                 	.MACRO __GETD1N
                 	LDI  R30,LOW(@0)
                 	LDI  R31,HIGH(@0)
                 	LDI  R22,BYTE3(@0)
                 	LDI  R23,BYTE4(@0)
                 	.ENDM
                 
                 	.MACRO __GETD2N
                 	LDI  R26,LOW(@0)
                 	LDI  R27,HIGH(@0)
                 	LDI  R24,BYTE3(@0)
                 	LDI  R25,BYTE4(@0)
                 	.ENDM
                 
                 	.MACRO __GETB1MN
                 	LDS  R30,@0+(@1)
                 	.ENDM
                 
                 	.MACRO __GETB1HMN
                 	LDS  R31,@0+(@1)
                 	.ENDM
                 
                 	.MACRO __GETW1MN
                 	LDS  R30,@0+(@1)
                 	LDS  R31,@0+(@1)+1
                 	.ENDM
                 
                 	.MACRO __GETD1MN
                 	LDS  R30,@0+(@1)
                 	LDS  R31,@0+(@1)+1
                 	LDS  R22,@0+(@1)+2
                 	LDS  R23,@0+(@1)+3
                 	.ENDM
                 
                 	.MACRO __GETBRMN
                 	LDS  R@0,@1+(@2)
                 	.ENDM
                 
                 	.MACRO __GETWRMN
                 	LDS  R@0,@2+(@3)
                 	LDS  R@1,@2+(@3)+1
                 	.ENDM
                 
                 	.MACRO __GETWRZ
                 	LDD  R@0,Z+@2
                 	LDD  R@1,Z+@2+1
                 	.ENDM
                 
                 	.MACRO __GETD2Z
                 	LDD  R26,Z+@0
                 	LDD  R27,Z+@0+1
                 	LDD  R24,Z+@0+2
                 	LDD  R25,Z+@0+3
                 	.ENDM
                 
                 	.MACRO __GETB2MN
                 	LDS  R26,@0+(@1)
                 	.ENDM
                 
                 	.MACRO __GETW2MN
                 	LDS  R26,@0+(@1)
                 	LDS  R27,@0+(@1)+1
                 	.ENDM
                 
                 	.MACRO __GETD2MN
                 	LDS  R26,@0+(@1)
                 	LDS  R27,@0+(@1)+1
                 	LDS  R24,@0+(@1)+2
                 	LDS  R25,@0+(@1)+3
                 	.ENDM
                 
                 	.MACRO __PUTB1MN
                 	STS  @0+(@1),R30
                 	.ENDM
                 
                 	.MACRO __PUTW1MN
                 	STS  @0+(@1),R30
                 	STS  @0+(@1)+1,R31
                 	.ENDM
                 
                 	.MACRO __PUTD1MN
                 	STS  @0+(@1),R30
                 	STS  @0+(@1)+1,R31
                 	STS  @0+(@1)+2,R22
                 	STS  @0+(@1)+3,R23
                 	.ENDM
                 
                 	.MACRO __PUTB1EN
                 	LDI  R26,LOW(@0+(@1))
                 	LDI  R27,HIGH(@0+(@1))
                 	CALL __EEPROMWRB
                 	.ENDM
                 
                 	.MACRO __PUTW1EN
                 	LDI  R26,LOW(@0+(@1))
                 	LDI  R27,HIGH(@0+(@1))
                 	CALL __EEPROMWRW
                 	.ENDM
                 
                 	.MACRO __PUTD1EN
                 	LDI  R26,LOW(@0+(@1))
                 	LDI  R27,HIGH(@0+(@1))
                 	CALL __EEPROMWRD
                 	.ENDM
                 
                 	.MACRO __PUTBR0MN
                 	STS  @0+(@1),R0
                 	.ENDM
                 
                 	.MACRO __PUTBMRN
                 	STS  @0+(@1),R@2
                 	.ENDM
                 
                 	.MACRO __PUTWMRN
                 	STS  @0+(@1),R@2
                 	STS  @0+(@1)+1,R@3
                 	.ENDM
                 
                 	.MACRO __PUTBZR
                 	STD  Z+@1,R@0
                 	.ENDM
                 
                 	.MACRO __PUTWZR
                 	STD  Z+@2,R@0
                 	STD  Z+@2+1,R@1
                 	.ENDM
                 
                 	.MACRO __GETW1R
                 	MOV  R30,R@0
                 	MOV  R31,R@1
                 	.ENDM
                 
                 	.MACRO __GETW2R
                 	MOV  R26,R@0
                 	MOV  R27,R@1
                 	.ENDM
                 
                 	.MACRO __GETWRN
                 	LDI  R@0,LOW(@2)
                 	LDI  R@1,HIGH(@2)
                 	.ENDM
                 
                 	.MACRO __PUTW1R
                 	MOV  R@0,R30
                 	MOV  R@1,R31
                 	.ENDM
                 
                 	.MACRO __PUTW2R
                 	MOV  R@0,R26
                 	MOV  R@1,R27
                 	.ENDM
                 
                 	.MACRO __ADDWRN
                 	SUBI R@0,LOW(-@2)
                 	SBCI R@1,HIGH(-@2)
                 	.ENDM
                 
                 	.MACRO __ADDWRR
                 	ADD  R@0,R@2
                 	ADC  R@1,R@3
                 	.ENDM
                 
                 	.MACRO __SUBWRN
                 	SUBI R@0,LOW(@2)
                 	SBCI R@1,HIGH(@2)
                 	.ENDM
                 
                 	.MACRO __SUBWRR
                 	SUB  R@0,R@2
                 	SBC  R@1,R@3
                 	.ENDM
                 
                 	.MACRO __ANDWRN
                 	ANDI R@0,LOW(@2)
                 	ANDI R@1,HIGH(@2)
                 	.ENDM
                 
                 	.MACRO __ANDWRR
                 	AND  R@0,R@2
                 	AND  R@1,R@3
                 	.ENDM
                 
                 	.MACRO __ORWRN
                 	ORI  R@0,LOW(@2)
                 	ORI  R@1,HIGH(@2)
                 	.ENDM
                 
                 	.MACRO __ORWRR
                 	OR   R@0,R@2
                 	OR   R@1,R@3
                 	.ENDM
                 
                 	.MACRO __EORWRR
                 	EOR  R@0,R@2
                 	EOR  R@1,R@3
                 	.ENDM
                 
                 	.MACRO __GETWRS
                 	LDD  R@0,Y+@2
                 	LDD  R@1,Y+@2+1
                 	.ENDM
                 
                 	.MACRO __PUTBSR
                 	STD  Y+@1,R@0
                 	.ENDM
                 
                 	.MACRO __PUTWSR
                 	STD  Y+@2,R@0
                 	STD  Y+@2+1,R@1
                 	.ENDM
                 
                 	.MACRO __MOVEWRR
                 	MOV  R@0,R@2
                 	MOV  R@1,R@3
                 	.ENDM
                 
                 	.MACRO __INWR
                 	IN   R@0,@2
                 	IN   R@1,@2+1
                 	.ENDM
                 
                 	.MACRO __OUTWR
                 	OUT  @2+1,R@1
                 	OUT  @2,R@0
                 	.ENDM
                 
                 	.MACRO __CALL1MN
                 	LDS  R30,@0+(@1)
                 	LDS  R31,@0+(@1)+1
                 	ICALL
                 	.ENDM
                 
                 	.MACRO __CALL1FN
                 	LDI  R30,LOW(2*@0+(@1))
                 	LDI  R31,HIGH(2*@0+(@1))
                 	CALL __GETW1PF
                 	ICALL
                 	.ENDM
                 
                 	.MACRO __CALL2EN
                 	LDI  R26,LOW(@0+(@1))
                 	LDI  R27,HIGH(@0+(@1))
                 	CALL __EEPROMRDW
                 	ICALL
                 	.ENDM
                 
                 	.MACRO __GETW1STACK
                 	IN   R26,SPL
                 	IN   R27,SPH
                 	ADIW R26,@0+1
                 	LD   R30,X+
                 	LD   R31,X
                 	.ENDM
                 
                 	.MACRO __GETD1STACK
                 	IN   R26,SPL
                 	IN   R27,SPH
                 	ADIW R26,@0+1
                 	LD   R30,X+
                 	LD   R31,X+
                 	LD   R22,X
                 	.ENDM
                 
                 	.MACRO __NBST
                 	BST  R@0,@1
                 	IN   R30,SREG
                 	LDI  R31,0x40
                 	EOR  R30,R31
                 	OUT  SREG,R30
                 	.ENDM
                 
                 
                 	.MACRO __PUTB1SN
                 	LDD  R26,Y+@0
                 	LDD  R27,Y+@0+1
                 	SUBI R26,LOW(-@1)
                 	SBCI R27,HIGH(-@1)
                 	ST   X,R30
                 	.ENDM
                 
                 	.MACRO __PUTW1SN
                 	LDD  R26,Y+@0
                 	LDD  R27,Y+@0+1
                 	SUBI R26,LOW(-@1)
                 	SBCI R27,HIGH(-@1)
                 	ST   X+,R30
                 	ST   X,R31
                 	.ENDM
                 
                 	.MACRO __PUTD1SN
                 	LDD  R26,Y+@0
                 	LDD  R27,Y+@0+1
                 	SUBI R26,LOW(-@1)
                 	SBCI R27,HIGH(-@1)
                 	CALL __PUTDP1
                 	.ENDM
                 
                 	.MACRO __PUTB1SNS
                 	LDD  R26,Y+@0
                 	LDD  R27,Y+@0+1
                 	ADIW R26,@1
                 	ST   X,R30
                 	.ENDM
                 
                 	.MACRO __PUTW1SNS
                 	LDD  R26,Y+@0
                 	LDD  R27,Y+@0+1
                 	ADIW R26,@1
                 	ST   X+,R30
                 	ST   X,R31
                 	.ENDM
                 
                 	.MACRO __PUTD1SNS
                 	LDD  R26,Y+@0
                 	LDD  R27,Y+@0+1
                 	ADIW R26,@1
                 	CALL __PUTDP1
                 	.ENDM
                 
                 	.MACRO __PUTB1PMN
                 	LDS  R26,@0
                 	LDS  R27,@0+1
                 	SUBI R26,LOW(-@1)
                 	SBCI R27,HIGH(-@1)
                 	ST   X,R30
                 	.ENDM
                 
                 	.MACRO __PUTW1PMN
                 	LDS  R26,@0
                 	LDS  R27,@0+1
                 	SUBI R26,LOW(-@1)
                 	SBCI R27,HIGH(-@1)
                 	ST   X+,R30
                 	ST   X,R31
                 	.ENDM
                 
                 	.MACRO __PUTD1PMN
                 	LDS  R26,@0
                 	LDS  R27,@0+1
                 	SUBI R26,LOW(-@1)
                 	SBCI R27,HIGH(-@1)
                 	CALL __PUTDP1
                 	.ENDM
                 
                 	.MACRO __PUTB1PMNS
                 	LDS  R26,@0
                 	LDS  R27,@0+1
                 	ADIW R26,@1
                 	ST   X,R30
                 	.ENDM
                 
                 	.MACRO __PUTW1PMNS
                 	LDS  R26,@0
                 	LDS  R27,@0+1
                 	ADIW R26,@1
                 	ST   X+,R30
                 	ST   X,R31
                 	.ENDM
                 
                 	.MACRO __PUTD1PMNS
                 	LDS  R26,@0
                 	LDS  R27,@0+1
                 	ADIW R26,@1
                 	CALL __PUTDP1
                 	.ENDM
                 
                 	.MACRO __PUTB1RN
                 	MOVW R26,R@0
                 	SUBI R26,LOW(-@1)
                 	SBCI R27,HIGH(-@1)
                 	ST   X,R30
                 	.ENDM
                 
                 	.MACRO __PUTW1RN
                 	MOVW R26,R@0
                 	SUBI R26,LOW(-@1)
                 	SBCI R27,HIGH(-@1)
                 	ST   X+,R30
                 	ST   X,R31
                 	.ENDM
                 
                 	.MACRO __PUTD1RN
                 	MOVW R26,R@0
                 	SUBI R26,LOW(-@1)
                 	SBCI R27,HIGH(-@1)
                 	CALL __PUTDP1
                 	.ENDM
                 
                 	.MACRO __PUTB1RNS
                 	MOVW R26,R@0
                 	ADIW R26,@1
                 	ST   X,R30
                 	.ENDM
                 
                 	.MACRO __PUTW1RNS
                 	MOVW R26,R@0
                 	ADIW R26,@1
                 	ST   X+,R30
                 	ST   X,R31
                 	.ENDM
                 
                 	.MACRO __PUTD1RNS
                 	MOVW R26,R@0
                 	ADIW R26,@1
                 	CALL __PUTDP1
                 	.ENDM
                 
                 	.MACRO __PUTB1RON
                 	MOV  R26,R@0
                 	MOV  R27,R@1
                 	SUBI R26,LOW(-@2)
                 	SBCI R27,HIGH(-@2)
                 	ST   X,R30
                 	.ENDM
                 
                 	.MACRO __PUTW1RON
                 	MOV  R26,R@0
                 	MOV  R27,R@1
                 	SUBI R26,LOW(-@2)
                 	SBCI R27,HIGH(-@2)
                 	ST   X+,R30
                 	ST   X,R31
                 	.ENDM
                 
                 	.MACRO __PUTD1RON
                 	MOV  R26,R@0
                 	MOV  R27,R@1
                 	SUBI R26,LOW(-@2)
                 	SBCI R27,HIGH(-@2)
                 	CALL __PUTDP1
                 	.ENDM
                 
                 	.MACRO __PUTB1RONS
                 	MOV  R26,R@0
                 	MOV  R27,R@1
                 	ADIW R26,@2
                 	ST   X,R30
                 	.ENDM
                 
                 	.MACRO __PUTW1RONS
                 	MOV  R26,R@0
                 	MOV  R27,R@1
                 	ADIW R26,@2
                 	ST   X+,R30
                 	ST   X,R31
                 	.ENDM
                 
                 	.MACRO __PUTD1RONS
                 	MOV  R26,R@0
                 	MOV  R27,R@1
                 	ADIW R26,@2
                 	CALL __PUTDP1
                 	.ENDM
                 
                 
                 	.MACRO __GETB1SX
                 	MOVW R30,R28
                 	SUBI R30,LOW(-@0)
                 	SBCI R31,HIGH(-@0)
                 	LD   R30,Z
                 	.ENDM
                 
                 	.MACRO __GETB1HSX
                 	MOVW R30,R28
                 	SUBI R30,LOW(-@0)
                 	SBCI R31,HIGH(-@0)
                 	LD   R31,Z
                 	.ENDM
                 
                 	.MACRO __GETW1SX
                 	MOVW R30,R28
                 	SUBI R30,LOW(-@0)
                 	SBCI R31,HIGH(-@0)
                 	LD   R0,Z+
                 	LD   R31,Z
                 	MOV  R30,R0
                 	.ENDM
                 
                 	.MACRO __GETD1SX
                 	MOVW R30,R28
                 	SUBI R30,LOW(-@0)
                 	SBCI R31,HIGH(-@0)
                 	LD   R0,Z+
                 	LD   R1,Z+
                 	LD   R22,Z+
                 	LD   R23,Z
                 	MOVW R30,R0
                 	.ENDM
                 
                 	.MACRO __GETB2SX
                 	MOVW R26,R28
                 	SUBI R26,LOW(-@0)
                 	SBCI R27,HIGH(-@0)
                 	LD   R26,X
                 	.ENDM
                 
                 	.MACRO __GETW2SX
                 	MOVW R26,R28
                 	SUBI R26,LOW(-@0)
                 	SBCI R27,HIGH(-@0)
                 	LD   R0,X+
                 	LD   R27,X
                 	MOV  R26,R0
                 	.ENDM
                 
                 	.MACRO __GETD2SX
                 	MOVW R26,R28
                 	SUBI R26,LOW(-@0)
                 	SBCI R27,HIGH(-@0)
                 	LD   R0,X+
                 	LD   R1,X+
                 	LD   R24,X+
                 	LD   R25,X
                 	MOVW R26,R0
                 	.ENDM
                 
                 	.MACRO __GETBRSX
                 	MOVW R30,R28
                 	SUBI R30,LOW(-@1)
                 	SBCI R31,HIGH(-@1)
                 	LD   R@0,Z
                 	.ENDM
                 
                 	.MACRO __GETWRSX
                 	MOVW R30,R28
                 	SUBI R30,LOW(-@2)
                 	SBCI R31,HIGH(-@2)
                 	LD   R@0,Z+
                 	LD   R@1,Z
                 	.ENDM
                 
                 	.MACRO __GETBRSX2
                 	MOVW R26,R28
                 	SUBI R26,LOW(-@1)
                 	SBCI R27,HIGH(-@1)
                 	LD   R@0,X
                 	.ENDM
                 
                 	.MACRO __GETWRSX2
                 	MOVW R26,R28
                 	SUBI R26,LOW(-@2)
                 	SBCI R27,HIGH(-@2)
                 	LD   R@0,X+
                 	LD   R@1,X
                 	.ENDM
                 
                 	.MACRO __LSLW8SX
                 	MOVW R30,R28
                 	SUBI R30,LOW(-@0)
                 	SBCI R31,HIGH(-@0)
                 	LD   R31,Z
                 	CLR  R30
                 	.ENDM
                 
                 	.MACRO __PUTB1SX
                 	MOVW R26,R28
                 	SUBI R26,LOW(-@0)
                 	SBCI R27,HIGH(-@0)
                 	ST   X,R30
                 	.ENDM
                 
                 	.MACRO __PUTW1SX
                 	MOVW R26,R28
                 	SUBI R26,LOW(-@0)
                 	SBCI R27,HIGH(-@0)
                 	ST   X+,R30
                 	ST   X,R31
                 	.ENDM
                 
                 	.MACRO __PUTD1SX
                 	MOVW R26,R28
                 	SUBI R26,LOW(-@0)
                 	SBCI R27,HIGH(-@0)
                 	ST   X+,R30
                 	ST   X+,R31
                 	ST   X+,R22
                 	ST   X,R23
                 	.ENDM
                 
                 	.MACRO __CLRW1SX
                 	MOVW R26,R28
                 	SUBI R26,LOW(-@0)
                 	SBCI R27,HIGH(-@0)
                 	ST   X+,R30
                 	ST   X,R30
                 	.ENDM
                 
                 	.MACRO __CLRD1SX
                 	MOVW R26,R28
                 	SUBI R26,LOW(-@0)
                 	SBCI R27,HIGH(-@0)
                 	ST   X+,R30
                 	ST   X+,R30
                 	ST   X+,R30
                 	ST   X,R30
                 	.ENDM
                 
                 	.MACRO __PUTB2SX
                 	MOVW R30,R28
                 	SUBI R30,LOW(-@0)
                 	SBCI R31,HIGH(-@0)
                 	ST   Z,R26
                 	.ENDM
                 
                 	.MACRO __PUTW2SX
                 	MOVW R30,R28
                 	SUBI R30,LOW(-@0)
                 	SBCI R31,HIGH(-@0)
                 	ST   Z+,R26
                 	ST   Z,R27
                 	.ENDM
                 
                 	.MACRO __PUTD2SX
                 	MOVW R30,R28
                 	SUBI R30,LOW(-@0)
                 	SBCI R31,HIGH(-@0)
                 	ST   Z+,R26
                 	ST   Z+,R27
                 	ST   Z+,R24
                 	ST   Z,R25
                 	.ENDM
                 
                 	.MACRO __PUTBSRX
                 	MOVW R30,R28
                 	SUBI R30,LOW(-@1)
                 	SBCI R31,HIGH(-@1)
                 	ST   Z,R@0
                 	.ENDM
                 
                 	.MACRO __PUTWSRX
                 	MOVW R30,R28
                 	SUBI R30,LOW(-@2)
                 	SBCI R31,HIGH(-@2)
                 	ST   Z+,R@0
                 	ST   Z,R@1
                 	.ENDM
                 
                 	.MACRO __PUTB1SNX
                 	MOVW R26,R28
                 	SUBI R26,LOW(-@0)
                 	SBCI R27,HIGH(-@0)
                 	LD   R0,X+
                 	LD   R27,X
                 	MOV  R26,R0
                 	SUBI R26,LOW(-@1)
                 	SBCI R27,HIGH(-@1)
                 	ST   X,R30
                 	.ENDM
                 
                 	.MACRO __PUTW1SNX
                 	MOVW R26,R28
                 	SUBI R26,LOW(-@0)
                 	SBCI R27,HIGH(-@0)
                 	LD   R0,X+
                 	LD   R27,X
                 	MOV  R26,R0
                 	SUBI R26,LOW(-@1)
                 	SBCI R27,HIGH(-@1)
                 	ST   X+,R30
                 	ST   X,R31
                 	.ENDM
                 
                 	.MACRO __PUTD1SNX
                 	MOVW R26,R28
                 	SUBI R26,LOW(-@0)
                 	SBCI R27,HIGH(-@0)
                 	LD   R0,X+
                 	LD   R27,X
                 	MOV  R26,R0
                 	SUBI R26,LOW(-@1)
                 	SBCI R27,HIGH(-@1)
                 	ST   X+,R30
                 	ST   X+,R31
                 	ST   X+,R22
                 	ST   X,R23
                 	.ENDM
                 
                 	.MACRO __MULBRR
                 	MULS R@0,R@1
                 	MOVW R30,R0
                 	.ENDM
                 
                 	.MACRO __MULBRRU
                 	MUL  R@0,R@1
                 	MOVW R30,R0
                 	.ENDM
                 
                 	.MACRO __MULBRR0
                 	MULS R@0,R@1
                 	.ENDM
                 
                 	.MACRO __MULBRRU0
                 	MUL  R@0,R@1
                 	.ENDM
                 
                 	.MACRO __MULBNWRU
                 	LDI  R26,@2
                 	MUL  R26,R@0
                 	MOVW R30,R0
                 	MUL  R26,R@1
                 	ADD  R31,R0
                 	.ENDM
                 
                 ;NAME DEFINITIONS FOR GLOBAL VARIABLES ALLOCATED TO REGISTERS
                 	.DEF _keys=R4
                 	.DEF __lcd_x=R7
                 	.DEF __lcd_y=R6
                 	.DEF __lcd_maxx=R9
                 
                 	.CSEG
                 	.ORG 0x00
                 
                 ;START OF CODE MARKER
                 __START_OF_CODE:
                 
                 ;INTERRUPT VECTORS
000000 940c 0163 	JMP  __RESET
000002 940c 01a1 	JMP  _int_ext_pulse
000004 940c 0567 	JMP  _int_ext1_motion
000006 940c 0000 	JMP  0x00
000008 940c 0000 	JMP  0x00
00000a 940c 0000 	JMP  0x00
00000c 940c 03d5 	JMP  _timer1_compa_isr
00000e 940c 0000 	JMP  0x00
000010 940c 0000 	JMP  0x00
000012 940c 040d 	JMP  _timer0_ovf_isr
000014 940c 0000 	JMP  0x00
000016 940c 0000 	JMP  0x00
000018 940c 0000 	JMP  0x00
00001a 940c 0000 	JMP  0x00
00001c 940c 0000 	JMP  0x00
00001e 940c 0000 	JMP  0x00
000020 940c 0000 	JMP  0x00
000022 940c 0000 	JMP  0x00
000024 940c 0000 	JMP  0x00
000026 940c 0000 	JMP  0x00
000028 940c 0000 	JMP  0x00
                 
                 _keymap_G005:
00002a 3431
00002b 3c37
00002c 3532
00002d 3038      	.DB  0x31,0x34,0x37,0x3C,0x32,0x35,0x38,0x30
00002e 3633
00002f 2339      	.DB  0x33,0x36,0x39,0x23
                 _tbl10_G100:
000030 2710
000031 03e8
000032 0064
000033 000a      	.DB  0x10,0x27,0xE8,0x3,0x64,0x0,0xA,0x0
000034 0001      	.DB  0x1,0x0
                 _tbl16_G100:
000035 1000
000036 0100
000037 0010
000038 0001      	.DB  0x0,0x10,0x0,0x1,0x10,0x0,0x1,0x0
                 
                 ;REGISTER BIT VARIABLES INITIALIZATION
                 __REG_BIT_VARS:
000039 0011      	.DW  0x0011
                 
                 _0x20000:
00003a 6974
00003b 656d
00003c 7473
00003d 6d61      	.DB  0x74,0x69,0x6D,0x65,0x73,0x74,0x61,0x6D
00003e 2c70
00003f 7365
000040 6174
000041 6f64      	.DB  0x70,0x2C,0x65,0x73,0x74,0x61,0x64,0x6F
000042 6420
000043 206f
000044 6973
000045 7473      	.DB  0x20,0x64,0x6F,0x20,0x73,0x69,0x73,0x74
000046 6d65
000047 0d61
000048 000a      	.DB  0x65,0x6D,0x61,0xD,0xA,0x0
                 _0x40000:
000049 6553
00004a 686e
00004b 2061
00004c 6e49      	.DB  0x53,0x65,0x6E,0x68,0x61,0x20,0x49,0x6E
00004d 6f63
00004e 7272
00004f 7465
000050 0061      	.DB  0x63,0x6F,0x72,0x72,0x65,0x74,0x61,0x0
000051 6553
000052 686e
000053 2061
000054 6f43      	.DB  0x53,0x65,0x6E,0x68,0x61,0x20,0x43,0x6F
000055 7272
000056 7465
000057 0061
000058 6144      	.DB  0x72,0x72,0x65,0x74,0x61,0x0,0x44,0x61
000059 6174
00005a 7320
00005b 7465
00005c 6461      	.DB  0x74,0x61,0x20,0x73,0x65,0x74,0x61,0x64
00005d 0061
00005e 694c
00005f 6167
000060 646e      	.DB  0x61,0x0,0x4C,0x69,0x67,0x61,0x6E,0x64
000061 2e6f
000062 2e2e
000063 5300
000064 7369      	.DB  0x6F,0x2E,0x2E,0x2E,0x0,0x53,0x69,0x73
000065 6574
000066 616d
000067 4120
000068 6d72      	.DB  0x74,0x65,0x6D,0x61,0x20,0x41,0x72,0x6D
000069 6461
00006a 006f
00006b 7241
00006c 616d      	.DB  0x61,0x64,0x6F,0x0,0x41,0x72,0x6D,0x61
00006d 646e
00006e 206f
00006f 6973
000070 7473      	.DB  0x6E,0x64,0x6F,0x20,0x73,0x69,0x73,0x74
000071 6d65
000072 0061
000073 2020
000074 2020      	.DB  0x65,0x6D,0x61,0x0,0x20,0x20,0x20,0x20
000075 2020
000076 2e2e
000077 002e
000078 6144      	.DB  0x20,0x20,0x2E,0x2E,0x2E,0x0,0x44,0x61
000079 6174
00007a 6520
00007b 4820
00007c 726f      	.DB  0x74,0x61,0x20,0x65,0x20,0x48,0x6F,0x72
00007d 3a61
00007e 0020
00007f 5f5f
000080 5f2f      	.DB  0x61,0x3A,0x20,0x0,0x5F,0x5F,0x2F,0x5F
000081 2f5f
000082 5f5f
000083 5f20
000084 3a5f      	.DB  0x5F,0x2F,0x5F,0x5F,0x20,0x5F,0x5F,0x3A
000085 5f5f
000086 2020
000087 4100
000088 6974      	.DB  0x5F,0x5F,0x20,0x20,0x0,0x41,0x74,0x69
000089 6576
00008a 6f20
00008b 7320
00008c 7369      	.DB  0x76,0x65,0x20,0x6F,0x20,0x73,0x69,0x73
00008d 6574
00008e 616d
00008f 003a
000090 6553      	.DB  0x74,0x65,0x6D,0x61,0x3A,0x0,0x53,0x65
000091 686e
000092 3a61
000093 5f20
000094 5f20      	.DB  0x6E,0x68,0x61,0x3A,0x20,0x5F,0x20,0x5F
000095 5f20
000096 5f20
000097 2020
000098 4100      	.DB  0x20,0x5F,0x20,0x5F,0x20,0x20,0x0,0x41
000099 656c
00009a 7472
00009b 3a61
00009c 4920      	.DB  0x6C,0x65,0x72,0x74,0x61,0x3A,0x20,0x49
00009d 746e
00009e 7572
00009f 6173
0000a0 006f      	.DB  0x6E,0x74,0x72,0x75,0x73,0x61,0x6F,0x0
0000a1 6c41
0000a2 7265
0000a3 6174
0000a4 203a      	.DB  0x41,0x6C,0x65,0x72,0x74,0x61,0x3A,0x20
0000a5 7250
0000a6 7365
0000a7 6e65
0000a8 6163      	.DB  0x50,0x72,0x65,0x73,0x65,0x6E,0x63,0x61
0000a9 4100
0000aa 656c
0000ab 7472
0000ac 3a61      	.DB  0x0,0x41,0x6C,0x65,0x72,0x74,0x61,0x3A
0000ad 4920
0000ae 636e
0000af 6e65
0000b0 6964      	.DB  0x20,0x49,0x6E,0x63,0x65,0x6E,0x64,0x69
0000b1 006f
0000b2 7553
0000b3 6570
0000b4 6172      	.DB  0x6F,0x0,0x53,0x75,0x70,0x65,0x72,0x61
0000b5 7571
0000b6 6365
0000b7 6d69
0000b8 6e65      	.DB  0x71,0x75,0x65,0x63,0x69,0x6D,0x65,0x6E
0000b9 6f74
0000ba 4100
0000bb 656c
0000bc 7472      	.DB  0x74,0x6F,0x0,0x41,0x6C,0x65,0x72,0x74
0000bd 3a61
0000be 4920
0000bf 766e
0000c0 7361      	.DB  0x61,0x3A,0x20,0x49,0x6E,0x76,0x61,0x73
0000c1 6f61
0000c2 4500
0000c3 7272
0000c4 206f      	.DB  0x61,0x6F,0x0,0x45,0x72,0x72,0x6F,0x20
0000c5 6f6e
0000c6 5320
0000c7 7369
0000c8 6574      	.DB  0x6E,0x6F,0x20,0x53,0x69,0x73,0x74,0x65
0000c9 616d
0000ca 4500
0000cb 7473
0000cc 6461      	.DB  0x6D,0x61,0x0,0x45,0x73,0x74,0x61,0x64
0000cd 206f
0000ce 6544
0000cf 6373
0000d0 6e6f      	.DB  0x6F,0x20,0x44,0x65,0x73,0x63,0x6F,0x6E
0000d1 6568
0000d2 6963
0000d3 6f64
C:\Users\Label\Documents\micro\Sistema-de-Monitoramento-Residencial\Release\List\SECURITY_SYSTEM.asm(1146): warning: .cseg .db misalignment - padding zero byte
0000d4 0000      	.DB  0x68,0x65,0x63,0x69,0x64,0x6F,0x0
                 _0x60003:
0000d5 3232
0000d6 3433      	.DB  0x32,0x32,0x33,0x34
                 _0x60004:
0000d7 3030
0000d8 3030
0000d9 3030
0000da 3030      	.DB  0x30,0x30,0x30,0x30,0x30,0x30,0x30,0x30
0000db 3030
0000dc 3030
0000dd 3030
C:\Users\Label\Documents\micro\Sistema-de-Monitoramento-Residencial\Release\List\SECURITY_SYSTEM.asm(1151): warning: .cseg .db misalignment - padding zero byte
0000de 0030      	.DB  0x30,0x30,0x30,0x30,0x30,0x30,0x30
                 _0xA0003:
C:\Users\Label\Documents\micro\Sistema-de-Monitoramento-Residencial\Release\List\SECURITY_SYSTEM.asm(1153): warning: .cseg .db misalignment - padding zero byte
0000df 000a      	.DB  0xA
                 _0xA0004:
C:\Users\Label\Documents\micro\Sistema-de-Monitoramento-Residencial\Release\List\SECURITY_SYSTEM.asm(1155): warning: .cseg .db misalignment - padding zero byte
0000e0 0040      	.DB  0x40
                 _0xA0000:
0000e1 2020
0000e2 2020
0000e3 6953
0000e4 7473      	.DB  0x20,0x20,0x20,0x20,0x53,0x69,0x73,0x74
0000e5 6d65
0000e6 0061
0000e7 2020
0000e8 6544      	.DB  0x65,0x6D,0x61,0x0,0x20,0x20,0x44,0x65
0000e9 6173
0000ea 6d72
0000eb 6461
0000ec 006f      	.DB  0x73,0x61,0x72,0x6D,0x61,0x64,0x6F,0x0
                 _0xE0008:
0000ed 02bc
0000ee 022b      	.DB  0xBC,0x2,0x2B,0x2
                 _0x140000:
0000ef 6425
0000f0 252f
0000f1 2f64
0000f2 6425      	.DB  0x25,0x64,0x2F,0x25,0x64,0x2F,0x25,0x64
0000f3 2520
0000f4 3a64
0000f5 6425
0000f6 253a      	.DB  0x20,0x25,0x64,0x3A,0x25,0x64,0x3A,0x25
0000f7 2c64
0000f8 6425
0000f9 0d2c
0000fa 000a      	.DB  0x64,0x2C,0x25,0x64,0x2C,0xD,0xA,0x0
                 _0x2020003:
0000fb c080      	.DB  0x80,0xC0
                 _0x2060060:
C:\Users\Label\Documents\micro\Sistema-de-Monitoramento-Residencial\Release\List\SECURITY_SYSTEM.asm(1169): warning: .cseg .db misalignment - padding zero byte
0000fc 0001      	.DB  0x1
                 _0x2060000:
0000fd 4e2d
0000fe 4e41
0000ff 4900
000100 464e      	.DB  0x2D,0x4E,0x41,0x4E,0x0,0x49,0x4E,0x46
C:\Users\Label\Documents\micro\Sistema-de-Monitoramento-Residencial\Release\List\SECURITY_SYSTEM.asm(1172): warning: .cseg .db misalignment - padding zero byte
000101 0000      	.DB  0x0
                 
                 __GLOBAL_INI_TBL:
000102 0001      	.DW  0x01
000103 0002      	.DW  0x02
000104 0072      	.DW  __REG_BIT_VARS*2
                 
000105 0010      	.DW  0x10
000106 0160      	.DW  _0x40003
000107 0092      	.DW  _0x40000*2
                 
000108 000e      	.DW  0x0E
000109 0170      	.DW  _0x40004
00010a 00a2      	.DW  _0x40000*2+16
                 
00010b 000c      	.DW  0x0C
00010c 017e      	.DW  _0x40005
00010d 00b0      	.DW  _0x40000*2+30
                 
00010e 000b      	.DW  0x0B
00010f 018a      	.DW  _0x4000A
000110 00bc      	.DW  _0x40000*2+42
                 
000111 000f      	.DW  0x0F
000112 0195      	.DW  _0x4000A+11
000113 00c7      	.DW  _0x40000*2+53
                 
000114 0010      	.DW  0x10
000115 01a4      	.DW  _0x4000A+26
000116 00d6      	.DW  _0x40000*2+68
                 
000117 000a      	.DW  0x0A
000118 01b4      	.DW  _0x4000A+42
000119 00e6      	.DW  _0x40000*2+84
                 
00011a 000e      	.DW  0x0E
00011b 01be      	.DW  _0x4000A+52
00011c 00f0      	.DW  _0x40000*2+94
                 
00011d 0011      	.DW  0x11
00011e 01cc      	.DW  _0x4000A+66
00011f 00fe      	.DW  _0x40000*2+108
                 
000120 0011      	.DW  0x11
000121 01dd      	.DW  _0x4000A+83
000122 010f      	.DW  _0x40000*2+125
                 
000123 0011      	.DW  0x11
000124 01ee      	.DW  _0x4000A+100
000125 0120      	.DW  _0x40000*2+142
                 
000126 0011      	.DW  0x11
000127 01ff      	.DW  _0x4000A+117
000128 0131      	.DW  _0x40000*2+159
                 
000129 0011      	.DW  0x11
00012a 0210      	.DW  _0x4000A+134
00012b 0120      	.DW  _0x40000*2+142
                 
00012c 0011      	.DW  0x11
00012d 0221      	.DW  _0x4000A+151
00012e 0142      	.DW  _0x40000*2+176
                 
00012f 0011      	.DW  0x11
000130 0232      	.DW  _0x4000A+168
000131 0120      	.DW  _0x40000*2+142
                 
000132 0011      	.DW  0x11
000133 0243      	.DW  _0x4000A+185
000134 0153      	.DW  _0x40000*2+193
                 
000135 0011      	.DW  0x11
000136 0254      	.DW  _0x4000A+202
000137 0120      	.DW  _0x40000*2+142
                 
000138 0011      	.DW  0x11
000139 0265      	.DW  _0x4000A+219
00013a 0164      	.DW  _0x40000*2+210
                 
00013b 0011      	.DW  0x11
00013c 0276      	.DW  _0x4000A+236
00013d 0120      	.DW  _0x40000*2+142
                 
00013e 0010      	.DW  0x10
00013f 0287      	.DW  _0x4000A+253
000140 0175      	.DW  _0x40000*2+227
                 
000141 0011      	.DW  0x11
000142 0297      	.DW  _0x4000A+269
000143 0120      	.DW  _0x40000*2+142
                 
000144 0010      	.DW  0x10
000145 02a8      	.DW  _0x4000A+286
000146 0185      	.DW  _0x40000*2+243
                 
000147 0014      	.DW  0x14
000148 02b8      	.DW  _0x4000A+302
000149 0195      	.DW  _0x40000*2+259
                 
00014a 0004      	.DW  0x04
00014b 02e5      	.DW  _password_G003
00014c 01aa      	.DW  _0x60003*2
                 
00014d 000f      	.DW  0x0F
00014e 02ef      	.DW  _data_input_G003
00014f 01ae      	.DW  _0x60004*2
                 
000150 0001      	.DW  0x01
000151 0301      	.DW  _key_pressed_counter_S0050000000
000152 01be      	.DW  _0xA0003*2
                 
000153 0001      	.DW  0x01
000154 0303      	.DW  _column_S0050000000
000155 01c0      	.DW  _0xA0004*2
                 
000156 000c      	.DW  0x0C
000157 02cc      	.DW  _0xA0020
000158 01c2      	.DW  _0xA0000*2
                 
000159 000c      	.DW  0x0C
00015a 02d8      	.DW  _0xA0020+12
00015b 01ce      	.DW  _0xA0000*2+12
                 
00015c 0002      	.DW  0x02
00015d 030c      	.DW  __base_y_G101
00015e 01f6      	.DW  _0x2020003*2
                 
00015f 0001      	.DW  0x01
000160 0310      	.DW  __seed_G103
000161 01f8      	.DW  _0x2060060*2
                 
                 _0xFFFFFFFF:
000162 0000      	.DW  0
                 
                 __RESET:
000163 94f8      	CLI
000164 27ee      	CLR  R30
000165 bbec      	OUT  EECR,R30
                 
                 ;INTERRUPT VECTORS ARE PLACED
                 ;AT THE START OF FLASH
000166 e0f1      	LDI  R31,1
000167 bffb      	OUT  GICR,R31
000168 bfeb      	OUT  GICR,R30
000169 bfe5      	OUT  MCUCR,R30
                 
                 ;DISABLE WATCHDOG
00016a e1f8      	LDI  R31,0x18
00016b bdf1      	OUT  WDTCR,R31
00016c bde1      	OUT  WDTCR,R30
                 
                 ;CLEAR R2-R14
00016d e08d      	LDI  R24,(14-2)+1
00016e e0a2      	LDI  R26,2
00016f 27bb      	CLR  R27
                 __CLEAR_REG:
000170 93ed      	ST   X+,R30
000171 958a      	DEC  R24
000172 f7e9      	BRNE __CLEAR_REG
                 
                 ;CLEAR SRAM
000173 e080      	LDI  R24,LOW(__CLEAR_SRAM_SIZE)
000174 e094      	LDI  R25,HIGH(__CLEAR_SRAM_SIZE)
000175 e6a0      	LDI  R26,__SRAM_START
                 __CLEAR_SRAM:
000176 93ed      	ST   X+,R30
000177 9701      	SBIW R24,1
000178 f7e9      	BRNE __CLEAR_SRAM
                 
                 ;GLOBAL VARIABLES INITIALIZATION
000179 e0e4      	LDI  R30,LOW(__GLOBAL_INI_TBL*2)
00017a e0f2      	LDI  R31,HIGH(__GLOBAL_INI_TBL*2)
                 __GLOBAL_INI_NEXT:
00017b 9185      	LPM  R24,Z+
00017c 9195      	LPM  R25,Z+
00017d 9700      	SBIW R24,0
00017e f061      	BREQ __GLOBAL_INI_END
00017f 91a5      	LPM  R26,Z+
000180 91b5      	LPM  R27,Z+
000181 9005      	LPM  R0,Z+
000182 9015      	LPM  R1,Z+
000183 01bf      	MOVW R22,R30
000184 01f0      	MOVW R30,R0
                 __GLOBAL_INI_LOOP:
000185 9005      	LPM  R0,Z+
000186 920d      	ST   X+,R0
000187 9701      	SBIW R24,1
000188 f7e1      	BRNE __GLOBAL_INI_LOOP
000189 01fb      	MOVW R30,R22
00018a cff0      	RJMP __GLOBAL_INI_NEXT
                 __GLOBAL_INI_END:
                 
                 ;HARDWARE STACK POINTER INITIALIZATION
00018b e5ef      	LDI  R30,LOW(__SRAM_END-__HEAP_SIZE)
00018c bfed      	OUT  SPL,R30
00018d e0e4      	LDI  R30,HIGH(__SRAM_END-__HEAP_SIZE)
00018e bfee      	OUT  SPH,R30
                 
                 ;DATA STACK POINTER INITIALIZATION
00018f e6c0      	LDI  R28,LOW(__SRAM_START+__DSTACK_SIZE)
000190 e0d1      	LDI  R29,HIGH(__SRAM_START+__DSTACK_SIZE)
                 
000191 940c 0193 	JMP  _main
                 
                 	.ESEG
                 	.ORG 0
                 
                 	.DSEG
                 	.ORG 0x160
                 
                 	.CSEG
                 ;#include <mega16.h>
                 	#ifndef __SLEEP_DEFINED__
                 	#define __SLEEP_DEFINED__
                 	.EQU __se_bit=0x40
                 	.EQU __sm_mask=0xB0
                 	.EQU __sm_powerdown=0x20
                 	.EQU __sm_powersave=0x30
                 	.EQU __sm_standby=0xA0
                 	.EQU __sm_ext_standby=0xB0
                 	.EQU __sm_adc_noise_red=0x10
                 	.SET power_ctrl_reg=mcucr
                 	#endif
                 ;#include <stdio.h>
                 ;#include "config.h"
                 ;#include "usart.h"
                 ;
                 ;void main(void)
                 ; 0000 0007 {
                 
                 	.CSEG
                 _main:
                 ; 0000 0008     SystemInit();
000193 d014      	RCALL _SystemInit
                 ; 0000 0009 
                 ; 0000 000A 
                 ; 0000 000B     while (1)
                 _0x3:
                 ; 0000 000C     {
                 ; 0000 000D         SystemUpdate();
000194 d024      	RCALL _SystemUpdate
                 ; 0000 000E         if(PIND.5 == 0)
000195 9985      	SBIC 0x10,5
000196 c003      	RJMP _0x6
                 ; 0000 000F         {
                 ; 0000 0010             SystemSetState(ST_MOTION);
000197 e0e6      	LDI  R30,LOW(6)
000198 93ea      	ST   -Y,R30
000199 d044      	RCALL _SystemSetState
                 ; 0000 0011         }
                 ; 0000 0012         if(PIND.3 == 0)
                 _0x6:
00019a 9983      	SBIC 0x10,3
00019b c003      	RJMP _0x7
                 ; 0000 0013         {
                 ; 0000 0014             SystemSetState(ST_FLAME);
00019c e0e7      	LDI  R30,LOW(7)
00019d 93ea      	ST   -Y,R30
00019e d03f      	RCALL _SystemSetState
                 ; 0000 0015         }
                 ; 0000 0016     }
                 _0x7:
00019f cff4      	RJMP _0x3
                 ; 0000 0017 }
                 _0x8:
0001a0 cfff      	RJMP _0x8
                 ;#include <mega16.h>
                 	#ifndef __SLEEP_DEFINED__
                 	#endif
                 ;#include <delay.h>
                 ;#include <alcd.h>
                 ;#include <i2c.h>
                 ;#include <stdio.h>
                 ;#include "config.h"
                 ;#include "lcd.h"
                 ;#include "timer.h"
                 ;#include "pwm.h"
                 ;#include "keypad.h"
                 ;#include "buzzer.h"
                 ;#include "password.h"
                 ;#include "sensors.h"
                 ;#include "rtc.h"
                 ;#include "usart.h"
                 ;
                 ;
                 ;static SystemState current_state;
                 ;static bit lcd_update_pending = 1;
                 ;static bit keypad_entry = 0;
                 ;static bit read_sensors_flag = 0;
                 ;static bit flag_pulse = 0;
                 ;
                 ;
                 ;interrupt [EXT_INT0] void int_ext_pulse (void)
                 ; 0001 001A {
                 
                 	.CSEG
                 _int_ext_pulse:
0001a1 93ea      	ST   -Y,R30
0001a2 b7ef      	IN   R30,SREG
                 ; 0001 001B     flag_pulse = 1;
0001a3 9468      	SET
0001a4 f823      	BLD  R2,3
                 ; 0001 001C }
0001a5 bfef      	OUT  SREG,R30
0001a6 91e9      	LD   R30,Y+
0001a7 9518      	RETI
                 ;
                 ;void SystemInit(void)
                 ; 0001 001F {
                 _SystemInit:
                 ; 0001 0020     // ConfiguraĂ§ĂŁo de registradores
                 ; 0001 0021     LCDInit();
0001a8 d06f      	RCALL _LCDInit
                 ; 0001 0022     RTCInit();
0001a9 940e 056e 	CALL _RTCInit
                 ; 0001 0023     USARTInit();
0001ab 940e 05d0 	CALL _USARTInit
                 ; 0001 0024     KEYPADInit();
0001ad 940e 0489 	CALL _KEYPADInit
                 ; 0001 0025     TIMER1Init();
0001af 940e 03e1 	CALL _TIMER1Init
                 ; 0001 0026     SENSORSInit();
0001b1 940e 055d 	CALL _SENSORSInit
                 ; 0001 0027     PWMInit();
0001b3 940e 051e 	CALL _PWMInit
                 ; 0001 0028     #asm
                 ; 0001 0029         .equ __i2c_port=0x18
                         .equ __i2c_port=0x18
                 ; 0001 002A         .equ __sda_bit=3
                         .equ __sda_bit=3
                 ; 0001 002B         .equ __scl_bit=4
                         .equ __scl_bit=4
                 ; 0001 002C     #endasm
                 ; 0001 002D     i2c_init();
0001b5 940e 095f 	CALL _i2c_init
                 ; 0001 002E     #asm("sei");
0001b7 9478      	sei
                 ; 0001 002F 
                 ; 0001 0030 }
0001b8 9508      	RET
                 ;
                 ;void SystemUpdate(void)
                 ; 0001 0033 {
                 _SystemUpdate:
                 ; 0001 0034     if (lcd_update_pending)
0001b9 fe20      	SBRS R2,0
0001ba c012      	RJMP _0x20003
                 ; 0001 0035     {
                 ; 0001 0036         LCDUpdate(current_state);
0001bb 91e0 02e4 	LDS  R30,_current_state_G001
0001bd 93ea      	ST   -Y,R30
0001be d092      	RCALL _LCDUpdate
                 ; 0001 0037         if(current_state == ST_BOOT)
0001bf 91e0 02e4 	LDS  R30,_current_state_G001
0001c1 30e0      	CPI  R30,0
0001c2 f441      	BRNE _0x20004
                 ; 0001 0038         {
                 ; 0001 0039             delay_ms(5000);
0001c3 e8e8      	LDI  R30,LOW(5000)
0001c4 e1f3      	LDI  R31,HIGH(5000)
0001c5 940e 08a9 	CALL SUBOPT_0x0
                 ; 0001 003A             SystemSetState(ST_SET_DATA);
0001c7 e0e3      	LDI  R30,LOW(3)
0001c8 93ea      	ST   -Y,R30
0001c9 d014      	RCALL _SystemSetState
                 ; 0001 003B             return;
0001ca 9508      	RET
                 ; 0001 003C         }
                 ; 0001 003D 
                 ; 0001 003E         lcd_update_pending = 0;
                 _0x20004:
0001cb 94e8      	CLT
0001cc f820      	BLD  R2,0
                 ; 0001 003F     }
                 ; 0001 0040     if(keypad_entry)
                 _0x20003:
0001cd fe21      	SBRS R2,1
0001ce c005      	RJMP _0x20005
                 ; 0001 0041     {
                 ; 0001 0042         KEYPADProcess(current_state);
0001cf 91e0 02e4 	LDS  R30,_current_state_G001
0001d1 93ea      	ST   -Y,R30
0001d2 940e 04b1 	CALL _KEYPADProcess
                 ; 0001 0043     }
                 ; 0001 0044     if (read_sensors_flag)
                 _0x20005:
                 ; 0001 0045     {
                 ; 0001 0046         //SensorsUpdate();
                 ; 0001 0047     }
                 ; 0001 0048     //BuzzerUpdate(current_state);
                 ; 0001 0049     if(flag_pulse == 1 && read_sensors_flag==1){
0001d4 fe23      	SBRS R2,3
0001d5 c002      	RJMP _0x20008
0001d6 fc22      	SBRC R2,2
0001d7 c001      	RJMP _0x20009
                 _0x20008:
0001d8 c004      	RJMP _0x20007
                 _0x20009:
                 ; 0001 004A         SerialUpdate();
0001d9 940e 05db 	CALL _SerialUpdate
                 ; 0001 004B         flag_pulse = 0;
0001db 94e8      	CLT
0001dc f823      	BLD  R2,3
                 ; 0001 004C     }
                 ; 0001 004D }
                 _0x20007:
0001dd 9508      	RET
                 ;
                 ;void SystemSetState(SystemState state)
                 ; 0001 0050 {
                 _SystemSetState:
                 ; 0001 0051     current_state = state;
                 ;	state -> Y+0
0001de 81e8      	LD   R30,Y
0001df 93e0 02e4 	STS  _current_state_G001,R30
                 ; 0001 0052     lcd_update_pending = 1;
0001e1 9468      	SET
0001e2 f820      	BLD  R2,0
                 ; 0001 0053     if (state == ST_SHOCK || state == ST_MOTION ||
                 ; 0001 0054         state == ST_FLAME || state == ST_OVERHEAT ||
                 ; 0001 0055         state == ST_DISARMED || state == ST_INVASION)
0001e3 81a8      	LD   R26,Y
0001e4 30a5      	CPI  R26,LOW(0x5)
0001e5 f051      	BREQ _0x2000B
0001e6 30a6      	CPI  R26,LOW(0x6)
0001e7 f041      	BREQ _0x2000B
0001e8 30a7      	CPI  R26,LOW(0x7)
0001e9 f031      	BREQ _0x2000B
0001ea 30a9      	CPI  R26,LOW(0x9)
0001eb f021      	BREQ _0x2000B
0001ec 30a4      	CPI  R26,LOW(0x4)
0001ed f011      	BREQ _0x2000B
0001ee 30a8      	CPI  R26,LOW(0x8)
0001ef f429      	BRNE _0x2000A
                 _0x2000B:
                 ; 0001 0056     {
                 ; 0001 0057         keypad_entry = 1;
0001f0 9468      	SET
0001f1 f821      	BLD  R2,1
                 ; 0001 0058         PasswordStart();
0001f2 d0d9      	RCALL _PasswordStart
                 ; 0001 0059         DataStart();
0001f3 d0df      	RCALL _DataStart
                 ; 0001 005A     }
                 ; 0001 005B     else if (state == ST_SET_DATA)
0001f4 c00a      	RJMP _0x2000D
                 _0x2000A:
0001f5 81a8      	LD   R26,Y
0001f6 30a3      	CPI  R26,LOW(0x3)
0001f7 f429      	BRNE _0x2000E
                 ; 0001 005C     {
                 ; 0001 005D         keypad_entry = 1;
0001f8 9468      	SET
0001f9 f821      	BLD  R2,1
                 ; 0001 005E         DataStart();
0001fa d0d8      	RCALL _DataStart
                 ; 0001 005F         PasswordStart();
0001fb d0d0      	RCALL _PasswordStart
                 ; 0001 0060     }
                 ; 0001 0061     else
0001fc c002      	RJMP _0x2000F
                 _0x2000E:
                 ; 0001 0062     {
                 ; 0001 0063         keypad_entry = 0;
0001fd 94e8      	CLT
0001fe f821      	BLD  R2,1
                 ; 0001 0064     }
                 _0x2000F:
                 _0x2000D:
                 ; 0001 0065 
                 ; 0001 0066     if(state == ST_ARMING_DELAY)
0001ff 81a8      	LD   R26,Y
000200 30a2      	CPI  R26,LOW(0x2)
000201 f489      	BRNE _0x20010
                 ; 0001 0067     {
                 ; 0001 0068         //delay_ms(60000);         // tempo para ajuste de sensores
                 ; 0001 0069         delay_ms(2000);
000202 ede0      	LDI  R30,LOW(2000)
000203 e0f7      	LDI  R31,HIGH(2000)
000204 940e 08a9 	CALL SUBOPT_0x0
                 ; 0001 006A         current_state = ST_ARMED;
000206 e0e1      	LDI  R30,LOW(1)
000207 93e0 02e4 	STS  _current_state_G001,R30
                 ; 0001 006B         printf("timestamp,estado do sistema\r\n");
                +
000209 e7e4     +LDI R30 , LOW ( 2 * _0x20000 + ( 0 ) )
00020a e0f0     +LDI R31 , HIGH ( 2 * _0x20000 + ( 0 ) )
                 	__POINTW1FN _0x20000,0
00020b 93fa      	ST   -Y,R31
00020c 93ea      	ST   -Y,R30
00020d e080      	LDI  R24,0
00020e 940e 0754 	CALL _printf
000210 9622      	ADIW R28,2
                 ; 0001 006C         read_sensors_flag = 1;
000211 9468      	SET
000212 f822      	BLD  R2,2
                 ; 0001 006D     }
                 ; 0001 006E }
                 _0x20010:
000213 9621      	ADIW R28,1
000214 9508      	RET
                 ;
                 ;SystemState SystemGetState(void)
                 ; 0001 0071 {
                 _SystemGetState:
                 ; 0001 0072     return current_state;
000215 91e0 02e4 	LDS  R30,_current_state_G001
000217 9508      	RET
                 ; 0001 0073 }
                 ;
                 ;#include <mega16.h>
                 	#ifndef __SLEEP_DEFINED__
                 	#endif
                 ;#include <alcd.h>
                 ;#include <delay.h>
                 ;
                 ;#include "lcd.h"
                 ;
                 ;void LCDInit(void)
                 ; 0002 0008 {
                 
                 	.CSEG
                 _LCDInit:
                 ; 0002 0009     // Configura os registradores para utilizar o LCD - Barramento A
                 ; 0002 000A     DDRA |= 0x04;     // Configura o pino PA2 como saĂ­da para habilitar o LCD
000218 9ad2      	SBI  0x1A,2
                 ; 0002 000B     lcd_init(16);     // Inicializa o LCD com 16 caracteres
000219 e1e0      	LDI  R30,LOW(16)
00021a 93ea      	ST   -Y,R30
00021b 940e 07e8 	CALL _lcd_init
                 ; 0002 000C     PORTA |= 0x08;    // Habilita o backlight do LCD
00021d 9adb      	SBI  0x1B,3
                 ; 0002 000D     lcd_gotoxy(0, 0); // PosicĂŁo padrĂŁo do cursor no LCD
00021e e0e0      	LDI  R30,LOW(0)
00021f 93ea      	ST   -Y,R30
000220 93ea      	ST   -Y,R30
000221 940e 07ac 	CALL _lcd_gotoxy
                 ; 0002 000E }
000223 9508      	RET
                 ;
                 ;void UpdatePasswordDisplay(unsigned char input, unsigned char length)
                 ; 0002 0011 {
                 _UpdatePasswordDisplay:
                 ; 0002 0012     lcd_gotoxy(7 + 2 * (length - 1), 1);
                 ;	input -> Y+1
                 ;	length -> Y+0
000224 940e 08ad 	CALL SUBOPT_0x1
                 ; 0002 0013     lcd_putchar(input);
000226 81e9      	LDD  R30,Y+1
000227 93ea      	ST   -Y,R30
000228 940e 07c5 	CALL _lcd_putchar
                 ; 0002 0014     delay_ms(500);
00022a efe4      	LDI  R30,LOW(500)
00022b e0f1      	LDI  R31,HIGH(500)
00022c 940e 08a9 	CALL SUBOPT_0x0
                 ; 0002 0015     lcd_gotoxy(7 + 2 * (length - 1), 1);
00022e 940e 08ad 	CALL SUBOPT_0x1
                 ; 0002 0016     lcd_putchar('*');
000230 e2ea      	LDI  R30,LOW(42)
000231 c006      	RJMP _0x210000C
                 ; 0002 0017 }
                 ;void UpdateDataDisplay(unsigned char input, unsigned char length)
                 ; 0002 0019 {
                 _UpdateDataDisplay:
                 ; 0002 001A     lcd_gotoxy((length - 1), 1);
                 ;	input -> Y+1
                 ;	length -> Y+0
000232 940e 08b7 	CALL SUBOPT_0x2
000234 9731      	SBIW R30,1
000235 940e 08ba 	CALL SUBOPT_0x3
                 ; 0002 001B     lcd_putchar(input);
000237 81e9      	LDD  R30,Y+1
                 _0x210000C:
000238 93ea      	ST   -Y,R30
000239 940e 07c5 	CALL _lcd_putchar
                 ; 0002 001C }
00023b 9622      	ADIW R28,2
00023c 9508      	RET
                 ;
                 ;void WrongPasswordDisplay(void)
                 ; 0002 001F {
                 _WrongPasswordDisplay:
                 ; 0002 0020     lcd_gotoxy(0, 1);
00023d e0e0      	LDI  R30,LOW(0)
00023e 940e 08ba 	CALL SUBOPT_0x3
                 ; 0002 0021     lcd_puts("Senha Incorreta");
                +
000240 e6e0     +LDI R30 , LOW ( _0x40003 + ( 0 ) )
000241 e0f1     +LDI R31 , HIGH ( _0x40003 + ( 0 ) )
                 	__POINTW1MN _0x40003,0
000242 c009      	RJMP _0x210000B
                 ; 0002 0022 }
                 
                 	.DSEG
                 _0x40003:
000160           	.BYTE 0x10
                 ;
                 ;void CorrectPasswordDisplay(void)
                 ; 0002 0025 {
                 
                 	.CSEG
                 _CorrectPasswordDisplay:
                 ; 0002 0026     lcd_clear();
000243 940e 07b8 	CALL _lcd_clear
                 ; 0002 0027     lcd_puts("Senha Correta");
                +
000245 e7e0     +LDI R30 , LOW ( _0x40004 + ( 0 ) )
000246 e0f1     +LDI R31 , HIGH ( _0x40004 + ( 0 ) )
                 	__POINTW1MN _0x40004,0
000247 c004      	RJMP _0x210000B
                 ; 0002 0028 }
                 
                 	.DSEG
                 _0x40004:
000170           	.BYTE 0xE
                 ;
                 ;void SetDataDisplay (void)
                 ; 0002 002B {
                 
                 	.CSEG
                 _SetDataDisplay:
                 ; 0002 002C     lcd_clear();
000248 940e 07b8 	CALL _lcd_clear
                 ; 0002 002D     lcd_puts("Data setada");
                +
00024a e7ee     +LDI R30 , LOW ( _0x40005 + ( 0 ) )
00024b e0f1     +LDI R31 , HIGH ( _0x40005 + ( 0 ) )
                 	__POINTW1MN _0x40005,0
                 _0x210000B:
00024c 93fa      	ST   -Y,R31
00024d 93ea      	ST   -Y,R30
00024e 940e 07da 	CALL _lcd_puts
                 ; 0002 002E }
000250 9508      	RET
                 
                 	.DSEG
                 _0x40005:
00017e           	.BYTE 0xC
                 ;
                 ;void LCDUpdate(SystemState state)
                 ; 0002 0031 {
                 
                 	.CSEG
                 _LCDUpdate:
                 ; 0002 0032     // Atualiza o display do LCD com base no estado atual do sistema
                 ; 0002 0033     lcd_clear();
                 ;	state -> Y+0
000251 940e 07b8 	CALL _lcd_clear
                 ; 0002 0034 
                 ; 0002 0035     switch (state)
000253 940e 08b7 	CALL SUBOPT_0x2
                 ; 0002 0036     {
                 ; 0002 0037         case ST_BOOT:
000255 9730      	SBIW R30,0
000256 f419      	BRNE _0x40009
                 ; 0002 0038             lcd_puts("Ligando...");
                +
000257 e8ea     +LDI R30 , LOW ( _0x4000A + ( 0 ) )
000258 e0f1     +LDI R31 , HIGH ( _0x4000A + ( 0 ) )
                 	__POINTW1MN _0x4000A,0
000259 c06c      	RJMP _0x40017
                 ; 0002 0039             break;
                 ; 0002 003A 
                 ; 0002 003B         case ST_ARMED:
                 _0x40009:
00025a 30e1      	CPI  R30,LOW(0x1)
00025b e0a0      	LDI  R26,HIGH(0x1)
00025c 07fa      	CPC  R31,R26
00025d f419      	BRNE _0x4000B
                 ; 0002 003C             lcd_puts("Sistema Armado");
                +
00025e e9e5     +LDI R30 , LOW ( _0x4000A + ( 11 ) )
00025f e0f1     +LDI R31 , HIGH ( _0x4000A + ( 11 ) )
                 	__POINTW1MN _0x4000A,11
000260 c065      	RJMP _0x40017
                 ; 0002 003D             break;
                 ; 0002 003E 
                 ; 0002 003F         case ST_ARMING_DELAY:
                 _0x4000B:
000261 30e2      	CPI  R30,LOW(0x2)
000262 e0a0      	LDI  R26,HIGH(0x2)
000263 07fa      	CPC  R31,R26
000264 f439      	BRNE _0x4000C
                 ; 0002 0040             lcd_puts("Armando sistema");
                +
000265 eae4     +LDI R30 , LOW ( _0x4000A + ( 26 ) )
000266 e0f1     +LDI R31 , HIGH ( _0x4000A + ( 26 ) )
                 	__POINTW1MN _0x4000A,26
000267 940e 08bf 	CALL SUBOPT_0x4
                 ; 0002 0041             lcd_gotoxy(0, 1);
                 ; 0002 0042             lcd_puts("      ...");
                +
000269 ebe4     +LDI R30 , LOW ( _0x4000A + ( 42 ) )
00026a e0f1     +LDI R31 , HIGH ( _0x4000A + ( 42 ) )
                 	__POINTW1MN _0x4000A,42
00026b c05a      	RJMP _0x40017
                 ; 0002 0043             break;
                 ; 0002 0044 
                 ; 0002 0045         case ST_SET_DATA:
                 _0x4000C:
00026c 30e3      	CPI  R30,LOW(0x3)
00026d e0a0      	LDI  R26,HIGH(0x3)
00026e 07fa      	CPC  R31,R26
00026f f439      	BRNE _0x4000D
                 ; 0002 0046             lcd_puts("Data e Hora: ");
                +
000270 ebee     +LDI R30 , LOW ( _0x4000A + ( 52 ) )
000271 e0f1     +LDI R31 , HIGH ( _0x4000A + ( 52 ) )
                 	__POINTW1MN _0x4000A,52
000272 940e 08bf 	CALL SUBOPT_0x4
                 ; 0002 0047             lcd_gotoxy(0, 1);
                 ; 0002 0048             lcd_puts("__/__/__ __:__  ");
                +
000274 ecec     +LDI R30 , LOW ( _0x4000A + ( 66 ) )
000275 e0f1     +LDI R31 , HIGH ( _0x4000A + ( 66 ) )
                 	__POINTW1MN _0x4000A,66
000276 c04f      	RJMP _0x40017
                 ; 0002 0049             break;
                 ; 0002 004A 
                 ; 0002 004B         case ST_DISARMED:
                 _0x4000D:
000277 30e4      	CPI  R30,LOW(0x4)
000278 e0a0      	LDI  R26,HIGH(0x4)
000279 07fa      	CPC  R31,R26
00027a f459      	BRNE _0x4000E
                 ; 0002 004C             lcd_puts("Ative o sistema:");
                +
00027b eded     +LDI R30 , LOW ( _0x4000A + ( 83 ) )
00027c e0f1     +LDI R31 , HIGH ( _0x4000A + ( 83 ) )
                 	__POINTW1MN _0x4000A,83
00027d 940e 08bf 	CALL SUBOPT_0x4
                 ; 0002 004D             lcd_gotoxy(0, 1);
                 ; 0002 004E             lcd_puts("Senha: _ _ _ _  ");
                +
00027f eeee     +LDI R30 , LOW ( _0x4000A + ( 100 ) )
000280 e0f1     +LDI R31 , HIGH ( _0x4000A + ( 100 ) )
                 	__POINTW1MN _0x4000A,100
000281 93fa      	ST   -Y,R31
000282 93ea      	ST   -Y,R30
000283 940e 07da 	CALL _lcd_puts
                 ; 0002 004F 
                 ; 0002 0050         case ST_SHOCK:
000285 c004      	RJMP _0x4000F
                 _0x4000E:
000286 30e5      	CPI  R30,LOW(0x5)
000287 e0a0      	LDI  R26,HIGH(0x5)
000288 07fa      	CPC  R31,R26
000289 f439      	BRNE _0x40010
                 _0x4000F:
                 ; 0002 0051             lcd_puts("Alerta: Intrusao");
                +
00028a efef     +LDI R30 , LOW ( _0x4000A + ( 117 ) )
00028b e0f1     +LDI R31 , HIGH ( _0x4000A + ( 117 ) )
                 	__POINTW1MN _0x4000A,117
00028c 940e 08bf 	CALL SUBOPT_0x4
                 ; 0002 0052             lcd_gotoxy(0, 1);
                 ; 0002 0053             lcd_puts("Senha: _ _ _ _  ");
                +
00028e e1e0     +LDI R30 , LOW ( _0x4000A + ( 134 ) )
00028f e0f2     +LDI R31 , HIGH ( _0x4000A + ( 134 ) )
                 	__POINTW1MN _0x4000A,134
000290 c035      	RJMP _0x40017
                 ; 0002 0054             break;
                 ; 0002 0055 
                 ; 0002 0056         case ST_MOTION:
                 _0x40010:
000291 30e6      	CPI  R30,LOW(0x6)
000292 e0a0      	LDI  R26,HIGH(0x6)
000293 07fa      	CPC  R31,R26
000294 f439      	BRNE _0x40011
                 ; 0002 0057             lcd_puts("Alerta: Presenca");
                +
000295 e2e1     +LDI R30 , LOW ( _0x4000A + ( 151 ) )
000296 e0f2     +LDI R31 , HIGH ( _0x4000A + ( 151 ) )
                 	__POINTW1MN _0x4000A,151
000297 940e 08bf 	CALL SUBOPT_0x4
                 ; 0002 0058             lcd_gotoxy(0, 1);
                 ; 0002 0059             lcd_puts("Senha: _ _ _ _  ");
                +
000299 e3e2     +LDI R30 , LOW ( _0x4000A + ( 168 ) )
00029a e0f2     +LDI R31 , HIGH ( _0x4000A + ( 168 ) )
                 	__POINTW1MN _0x4000A,168
00029b c02a      	RJMP _0x40017
                 ; 0002 005A             break;
                 ; 0002 005B 
                 ; 0002 005C         case ST_FLAME:
                 _0x40011:
00029c 30e7      	CPI  R30,LOW(0x7)
00029d e0a0      	LDI  R26,HIGH(0x7)
00029e 07fa      	CPC  R31,R26
00029f f439      	BRNE _0x40012
                 ; 0002 005D             lcd_puts("Alerta: Incendio");
                +
0002a0 e4e3     +LDI R30 , LOW ( _0x4000A + ( 185 ) )
0002a1 e0f2     +LDI R31 , HIGH ( _0x4000A + ( 185 ) )
                 	__POINTW1MN _0x4000A,185
0002a2 940e 08bf 	CALL SUBOPT_0x4
                 ; 0002 005E             lcd_gotoxy(0, 1);
                 ; 0002 005F             lcd_puts("Senha: _ _ _ _  ");
                +
0002a4 e5e4     +LDI R30 , LOW ( _0x4000A + ( 202 ) )
0002a5 e0f2     +LDI R31 , HIGH ( _0x4000A + ( 202 ) )
                 	__POINTW1MN _0x4000A,202
0002a6 c01f      	RJMP _0x40017
                 ; 0002 0060             break;
                 ; 0002 0061 
                 ; 0002 0062         case ST_OVERHEAT:
                 _0x40012:
0002a7 30e9      	CPI  R30,LOW(0x9)
0002a8 e0a0      	LDI  R26,HIGH(0x9)
0002a9 07fa      	CPC  R31,R26
0002aa f439      	BRNE _0x40013
                 ; 0002 0063             lcd_puts("Superaquecimento");
                +
0002ab e6e5     +LDI R30 , LOW ( _0x4000A + ( 219 ) )
0002ac e0f2     +LDI R31 , HIGH ( _0x4000A + ( 219 ) )
                 	__POINTW1MN _0x4000A,219
0002ad 940e 08bf 	CALL SUBOPT_0x4
                 ; 0002 0064             lcd_gotoxy(0, 1);
                 ; 0002 0065             lcd_puts("Senha: _ _ _ _  ");
                +
0002af e7e6     +LDI R30 , LOW ( _0x4000A + ( 236 ) )
0002b0 e0f2     +LDI R31 , HIGH ( _0x4000A + ( 236 ) )
                 	__POINTW1MN _0x4000A,236
0002b1 c014      	RJMP _0x40017
                 ; 0002 0066             break;
                 ; 0002 0067 
                 ; 0002 0068         case ST_INVASION:
                 _0x40013:
0002b2 30e8      	CPI  R30,LOW(0x8)
0002b3 e0a0      	LDI  R26,HIGH(0x8)
0002b4 07fa      	CPC  R31,R26
0002b5 f439      	BRNE _0x40014
                 ; 0002 0069             lcd_puts("Alerta: Invasao");
                +
0002b6 e8e7     +LDI R30 , LOW ( _0x4000A + ( 253 ) )
0002b7 e0f2     +LDI R31 , HIGH ( _0x4000A + ( 253 ) )
                 	__POINTW1MN _0x4000A,253
0002b8 940e 08bf 	CALL SUBOPT_0x4
                 ; 0002 006A             lcd_gotoxy(0, 1);
                 ; 0002 006B             lcd_puts("Senha: _ _ _ _  ");
                +
0002ba e9e7     +LDI R30 , LOW ( _0x4000A + ( 269 ) )
0002bb e0f2     +LDI R31 , HIGH ( _0x4000A + ( 269 ) )
                 	__POINTW1MN _0x4000A,269
0002bc c009      	RJMP _0x40017
                 ; 0002 006C             break;
                 ; 0002 006D 
                 ; 0002 006E         case ST_ERROR:
                 _0x40014:
0002bd 30ea      	CPI  R30,LOW(0xA)
0002be e0a0      	LDI  R26,HIGH(0xA)
0002bf 07fa      	CPC  R31,R26
0002c0 f419      	BRNE _0x40016
                 ; 0002 006F             lcd_puts("Erro no Sistema");
                +
0002c1 eae8     +LDI R30 , LOW ( _0x4000A + ( 286 ) )
0002c2 e0f2     +LDI R31 , HIGH ( _0x4000A + ( 286 ) )
                 	__POINTW1MN _0x4000A,286
0002c3 c002      	RJMP _0x40017
                 ; 0002 0070             break;
                 ; 0002 0071 
                 ; 0002 0072         default:
                 _0x40016:
                 ; 0002 0073             lcd_puts("Estado Desconhecido");
                +
0002c4 ebe8     +LDI R30 , LOW ( _0x4000A + ( 302 ) )
0002c5 e0f2     +LDI R31 , HIGH ( _0x4000A + ( 302 ) )
                 	__POINTW1MN _0x4000A,302
                 _0x40017:
0002c6 93fa      	ST   -Y,R31
0002c7 93ea      	ST   -Y,R30
0002c8 940e 07da 	CALL _lcd_puts
                 ; 0002 0074             break;
                 ; 0002 0075     }
                 ; 0002 0076 }
0002ca 940c 0819 	JMP  _0x2100008
                 
                 	.DSEG
                 _0x4000A:
00018a           	.BYTE 0x142
                 ;#include <alcd.h>
                 ;#include "password.h"
                 ;#include "lcd.h"
                 ;#include "rtc.h"
                 ;#include <stdio.h>
                 ;
                 ;#define PASSWORD_LENGTH 4
                 ;#define DATA_LENGTH 15
                 ;
                 ;static unsigned char password[PASSWORD_LENGTH] = {'2', '2', '3', '4'};
                 
                 	.DSEG
                 ;static unsigned char password_length;
                 ;static unsigned char data_length;
                 ;static unsigned char password_input[PASSWORD_LENGTH];
                 ;static unsigned char data_input[DATA_LENGTH] = {'0','0','0','0','0','0','0','0','0','0','0','0','0','0','0'};
                 ;static unsigned char password_entry_active;
                 ;static unsigned char data_entry_active;
                 ;
                 ;
                 ;
                 ;void PasswordStart(void)
                 ; 0003 0015 {
                 
                 	.CSEG
                 _PasswordStart:
                 ; 0003 0016     password_length = 0;
0002cc e0e0      	LDI  R30,LOW(0)
0002cd 93e0 02e9 	STS  _password_length_G003,R30
                 ; 0003 0017     password_entry_active = 1;
0002cf e0e1      	LDI  R30,LOW(1)
0002d0 93e0 02fe 	STS  _password_entry_active_G003,R30
                 ; 0003 0018 }
0002d2 9508      	RET
                 ;
                 ;void DataStart(void)
                 ; 0003 001B {
                 _DataStart:
                 ; 0003 001C     data_length = 0;
0002d3 e0e0      	LDI  R30,LOW(0)
0002d4 93e0 02ea 	STS  _data_length_G003,R30
                 ; 0003 001D     data_entry_active = 1;
0002d6 e0e1      	LDI  R30,LOW(1)
0002d7 93e0 02ff 	STS  _data_entry_active_G003,R30
                 ; 0003 001E }
0002d9 9508      	RET
                 ;
                 ;void PasswordInput(unsigned char input)
                 ; 0003 0021 {
                 _PasswordInput:
                 ; 0003 0022     if (password_length >= PASSWORD_LENGTH)
                 ;	input -> Y+0
0002da 91a0 02e9 	LDS  R26,_password_length_G003
0002dc 30a4      	CPI  R26,LOW(0x4)
0002dd f010      	BRLO _0x60005
                 ; 0003 0023         return;
0002de 940c 0819 	JMP  _0x2100008
                 ; 0003 0024 
                 ; 0003 0025     password_input[password_length] = input;
                 _0x60005:
0002e0 91e0 02e9 	LDS  R30,_password_length_G003
0002e2 e0f0      	LDI  R31,0
0002e3 51e5      	SUBI R30,LOW(-_password_input_G003)
0002e4 4ffd      	SBCI R31,HIGH(-_password_input_G003)
0002e5 81a8      	LD   R26,Y
0002e6 83a0      	STD  Z+0,R26
                 ; 0003 0026     password_length++;
0002e7 91e0 02e9 	LDS  R30,_password_length_G003
0002e9 5fef      	SUBI R30,-LOW(1)
0002ea 93e0 02e9 	STS  _password_length_G003,R30
                 ; 0003 0027 
                 ; 0003 0028     UpdatePasswordDisplay(input, password_length);
0002ec 81e8      	LD   R30,Y
0002ed 93ea      	ST   -Y,R30
0002ee 91e0 02e9 	LDS  R30,_password_length_G003
0002f0 93ea      	ST   -Y,R30
0002f1 df32      	RCALL _UpdatePasswordDisplay
                 ; 0003 0029 }
0002f2 940c 0819 	JMP  _0x2100008
                 ;
                 ;void DataInput(unsigned char input)
                 ; 0003 002C {
                 _DataInput:
                 ; 0003 002D     if (data_length >= DATA_LENGTH)
                 ;	input -> Y+0
0002f4 91a0 02ea 	LDS  R26,_data_length_G003
0002f6 30af      	CPI  R26,LOW(0xF)
0002f7 f010      	BRLO _0x60006
                 ; 0003 002E         return;
0002f8 940c 0819 	JMP  _0x2100008
                 ; 0003 002F 
                 ; 0003 0030     data_input[data_length] = input;
                 _0x60006:
0002fa 91e0 02ea 	LDS  R30,_data_length_G003
0002fc e0f0      	LDI  R31,0
0002fd 51e1      	SUBI R30,LOW(-_data_input_G003)
0002fe 4ffd      	SBCI R31,HIGH(-_data_input_G003)
0002ff 81a8      	LD   R26,Y
000300 83a0      	STD  Z+0,R26
                 ; 0003 0031     data_length++;
000301 91e0 02ea 	LDS  R30,_data_length_G003
000303 5fef      	SUBI R30,-LOW(1)
000304 93e0 02ea 	STS  _data_length_G003,R30
                 ; 0003 0032 
                 ; 0003 0033     UpdateDataDisplay(input, data_length);
000306 81e8      	LD   R30,Y
000307 93ea      	ST   -Y,R30
000308 91e0 02ea 	LDS  R30,_data_length_G003
00030a 93ea      	ST   -Y,R30
00030b df26      	RCALL _UpdateDataDisplay
                 ; 0003 0034 
                 ; 0003 0035     if (data_length % 3 == 2 && data_length < DATA_LENGTH)
00030c 940e 08c5 	CALL SUBOPT_0x5
00030e 9732      	SBIW R30,2
00030f f421      	BRNE _0x60008
000310 91a0 02ea 	LDS  R26,_data_length_G003
000312 30af      	CPI  R26,LOW(0xF)
000313 f008      	BRLO _0x60009
                 _0x60008:
000314 c005      	RJMP _0x60007
                 _0x60009:
                 ; 0003 0036     {
                 ; 0003 0037         data_length++;
000315 91e0 02ea 	LDS  R30,_data_length_G003
000317 5fef      	SUBI R30,-LOW(1)
000318 93e0 02ea 	STS  _data_length_G003,R30
                 ; 0003 0038     }
                 ; 0003 0039 
                 ; 0003 003A }
                 _0x60007:
00031a 940c 0819 	JMP  _0x2100008
                 ;
                 ;
                 ;void CleanLastPasswordDigit(void)
                 ; 0003 003E {
                 _CleanLastPasswordDigit:
                 ; 0003 003F     if (password_length > 0)
00031c 91a0 02e9 	LDS  R26,_password_length_G003
00031e 30a1      	CPI  R26,LOW(0x1)
00031f f068      	BRLO _0x6000A
                 ; 0003 0040     {
                 ; 0003 0041         password_length--;
000320 91e0 02e9 	LDS  R30,_password_length_G003
000322 50e1      	SUBI R30,LOW(1)
000323 93e0 02e9 	STS  _password_length_G003,R30
                 ; 0003 0042         lcd_gotoxy(7 + 2 * password_length, 1);
000325 0fee      	LSL  R30
000326 5fe9      	SUBI R30,-LOW(7)
000327 940e 08ba 	CALL SUBOPT_0x3
                 ; 0003 0043         lcd_putchar('_');
000329 e5ef      	LDI  R30,LOW(95)
00032a 93ea      	ST   -Y,R30
00032b 940e 07c5 	CALL _lcd_putchar
                 ; 0003 0044     }
                 ; 0003 0045 }
                 _0x6000A:
00032d 9508      	RET
                 ;
                 ;void CleanLastDataDigit(void)
                 ; 0003 0048 {
                 _CleanLastDataDigit:
                 ; 0003 0049     if (data_length > 0)
00032e 91a0 02ea 	LDS  R26,_data_length_G003
000330 30a1      	CPI  R26,LOW(0x1)
000331 f0a0      	BRLO _0x6000B
                 ; 0003 004A     {
                 ; 0003 004B         data_length--;
000332 91e0 02ea 	LDS  R30,_data_length_G003
000334 50e1      	SUBI R30,LOW(1)
000335 93e0 02ea 	STS  _data_length_G003,R30
                 ; 0003 004C         if (data_length % 3 == 2)
000337 940e 08c5 	CALL SUBOPT_0x5
000339 30e2      	CPI  R30,LOW(0x2)
00033a e0a0      	LDI  R26,HIGH(0x2)
00033b 07fa      	CPC  R31,R26
00033c f409      	BRNE _0x6000C
                 ; 0003 004D         {
                 ; 0003 004E             return;
00033d 9508      	RET
                 ; 0003 004F         }
                 ; 0003 0050         lcd_gotoxy(data_length, 1);
                 _0x6000C:
00033e 91e0 02ea 	LDS  R30,_data_length_G003
000340 940e 08ba 	CALL SUBOPT_0x3
                 ; 0003 0051         lcd_putchar('_');
000342 e5ef      	LDI  R30,LOW(95)
000343 93ea      	ST   -Y,R30
000344 940e 07c5 	CALL _lcd_putchar
                 ; 0003 0052     }
                 ; 0003 0053 }
                 _0x6000B:
000346 9508      	RET
                 ;
                 ;PasswordResult PasswordConfirm(void)
                 ; 0003 0056 {
                 _PasswordConfirm:
                 ; 0003 0057     unsigned char i;
                 ; 0003 0058 
                 ; 0003 0059     if (!password_entry_active || password_length < PASSWORD_LENGTH)
000347 931a      	ST   -Y,R17
                 ;	i -> R17
000348 91e0 02fe 	LDS  R30,_password_entry_active_G003
00034a 30e0      	CPI  R30,0
00034b f021      	BREQ _0x6000E
00034c 91a0 02e9 	LDS  R26,_password_length_G003
00034e 30a4      	CPI  R26,LOW(0x4)
00034f f410      	BRSH _0x6000D
                 _0x6000E:
                 ; 0003 005A         return PASSWORD_PENDING;
000350 e0e0      	LDI  R30,LOW(0)
000351 c01c      	RJMP _0x210000A
                 ; 0003 005B 
                 ; 0003 005C     for (i = 0; i < PASSWORD_LENGTH; i++)
                 _0x6000D:
000352 e010      	LDI  R17,LOW(0)
                 _0x60011:
000353 3014      	CPI  R17,4
000354 f490      	BRSH _0x60012
                 ; 0003 005D     {
                 ; 0003 005E         if (password_input[i] != password[i])
000355 2fe1      	MOV  R30,R17
000356 e0f0      	LDI  R31,0
000357 010f      	MOVW R0,R30
000358 51e5      	SUBI R30,LOW(-_password_input_G003)
000359 4ffd      	SBCI R31,HIGH(-_password_input_G003)
00035a 81a0      	LD   R26,Z
00035b 01f0      	MOVW R30,R0
00035c 51eb      	SUBI R30,LOW(-_password_G003)
00035d 4ffd      	SBCI R31,HIGH(-_password_G003)
00035e 81e0      	LD   R30,Z
00035f 17ea      	CP   R30,R26
000360 f021      	BREQ _0x60013
                 ; 0003 005F         {
                 ; 0003 0060             WrongPasswordDisplay();
000361 dedb      	RCALL _WrongPasswordDisplay
                 ; 0003 0061             PasswordStart();
000362 df69      	RCALL _PasswordStart
                 ; 0003 0062             return PASSWORD_INCORRECT;
000363 e0e2      	LDI  R30,LOW(2)
000364 c009      	RJMP _0x210000A
                 ; 0003 0063         }
                 ; 0003 0064     }
                 _0x60013:
000365 5f1f      	SUBI R17,-1
000366 cfec      	RJMP _0x60011
                 _0x60012:
                 ; 0003 0065 
                 ; 0003 0066     CorrectPasswordDisplay();
000367 dedb      	RCALL _CorrectPasswordDisplay
                 ; 0003 0067     password_entry_active = 0;
000368 e0e0      	LDI  R30,LOW(0)
000369 93e0 02fe 	STS  _password_entry_active_G003,R30
                 ; 0003 0068     password_length = 0;
00036b 93e0 02e9 	STS  _password_length_G003,R30
                 ; 0003 0069     return PASSWORD_CORRECT;
00036d e0e1      	LDI  R30,LOW(1)
                 _0x210000A:
00036e 9119      	LD   R17,Y+
00036f 9508      	RET
                 ; 0003 006A }
                 ;
                 ;Data DataSet(void)
                 ; 0003 006D {
                 _DataSet:
                 ; 0003 006E     unsigned char dia_;
                 ; 0003 006F     unsigned char mes_;
                 ; 0003 0070     unsigned char ano_;
                 ; 0003 0071     unsigned char hor_;
                 ; 0003 0072     unsigned char min_;
                 ; 0003 0073     if (!data_entry_active || data_length < DATA_LENGTH)
000370 940e 0a4a 	CALL __SAVELOCR6
                 ;	dia_ -> R17
                 ;	mes_ -> R16
                 ;	ano_ -> R19
                 ;	hor_ -> R18
                 ;	min_ -> R21
000372 91e0 02ff 	LDS  R30,_data_entry_active_G003
000374 30e0      	CPI  R30,0
000375 f021      	BREQ _0x60015
000376 91a0 02ea 	LDS  R26,_data_length_G003
000378 30af      	CPI  R26,LOW(0xF)
000379 f428      	BRSH _0x60014
                 _0x60015:
                 ; 0003 0074         return DATA_PENDING;
00037a e0e0      	LDI  R30,LOW(0)
00037b 940e 0a51 	CALL __LOADLOCR6
00037d 940c 0856 	JMP  _0x2100007
                 ; 0003 0075 
                 ; 0003 0076     SetDataDisplay();
                 _0x60014:
00037f dec8      	RCALL _SetDataDisplay
                 ; 0003 0077     if(data_length == DATA_LENGTH){
000380 91a0 02ea 	LDS  R26,_data_length_G003
000382 30af      	CPI  R26,LOW(0xF)
000383 f011      	BREQ PC+3
000384 940c 03cb 	JMP _0x60017
                 ; 0003 0078         dia_ = (char)((data_input[0]- '0')*10 + (data_input[1]- '0'));
000386 91e0 02ef 	LDS  R30,_data_input_G003
000388 940e 08cd 	CALL SUBOPT_0x6
00038a 940e 08d0 	CALL SUBOPT_0x7
                +
00038c 91e0 02f0+LDS R30 , _data_input_G003 + ( 1 )
                 	__GETB1MN _data_input_G003,1
00038e 940e 08cd 	CALL SUBOPT_0x6
000390 0fea      	ADD  R30,R26
000391 2f1e      	MOV  R17,R30
                 ; 0003 0079         mes_ = (char)((data_input[3]- '0')*10 + (data_input[4]- '0'));
                +
000392 91e0 02f2+LDS R30 , _data_input_G003 + ( 3 )
                 	__GETB1MN _data_input_G003,3
000394 940e 08cd 	CALL SUBOPT_0x6
000396 940e 08d0 	CALL SUBOPT_0x7
                +
000398 91e0 02f3+LDS R30 , _data_input_G003 + ( 4 )
                 	__GETB1MN _data_input_G003,4
00039a 940e 08cd 	CALL SUBOPT_0x6
00039c 0fea      	ADD  R30,R26
00039d 2f0e      	MOV  R16,R30
                 ; 0003 007A         ano_ = (char)((data_input[6]- '0')*10 + (data_input[7]- '0'));
                +
00039e 91e0 02f5+LDS R30 , _data_input_G003 + ( 6 )
                 	__GETB1MN _data_input_G003,6
0003a0 940e 08cd 	CALL SUBOPT_0x6
0003a2 940e 08d0 	CALL SUBOPT_0x7
                +
0003a4 91e0 02f6+LDS R30 , _data_input_G003 + ( 7 )
                 	__GETB1MN _data_input_G003,7
0003a6 940e 08cd 	CALL SUBOPT_0x6
0003a8 0fea      	ADD  R30,R26
0003a9 2f3e      	MOV  R19,R30
                 ; 0003 007B         hor_ = (char)((data_input[9]- '0')*10 + (data_input[10]- '0'));
                +
0003aa 91e0 02f8+LDS R30 , _data_input_G003 + ( 9 )
                 	__GETB1MN _data_input_G003,9
0003ac 940e 08cd 	CALL SUBOPT_0x6
0003ae 940e 08d0 	CALL SUBOPT_0x7
                +
0003b0 91e0 02f9+LDS R30 , _data_input_G003 + ( 10 )
                 	__GETB1MN _data_input_G003,10
0003b2 940e 08cd 	CALL SUBOPT_0x6
0003b4 0fea      	ADD  R30,R26
0003b5 2f2e      	MOV  R18,R30
                 ; 0003 007C         min_ = (char)((data_input[12]- '0')*10 + (data_input[13]- '0'));
                +
0003b6 91e0 02fb+LDS R30 , _data_input_G003 + ( 12 )
                 	__GETB1MN _data_input_G003,12
0003b8 940e 08cd 	CALL SUBOPT_0x6
0003ba 940e 08d0 	CALL SUBOPT_0x7
                +
0003bc 91e0 02fc+LDS R30 , _data_input_G003 + ( 13 )
                 	__GETB1MN _data_input_G003,13
0003be 940e 08cd 	CALL SUBOPT_0x6
0003c0 0fea      	ADD  R30,R26
0003c1 2f5e      	MOV  R21,R30
                 ; 0003 007D 
                 ; 0003 007E         SetDateRTC(dia_, mes_, ano_);
0003c2 931a      	ST   -Y,R17
0003c3 930a      	ST   -Y,R16
0003c4 933a      	ST   -Y,R19
0003c5 940e 05bc 	CALL _SetDateRTC
                 ; 0003 007F         SetTimeRTC(hor_, min_);
0003c7 932a      	ST   -Y,R18
0003c8 935a      	ST   -Y,R21
0003c9 940e 05c6 	CALL _SetTimeRTC
                 ; 0003 0080     }
                 ; 0003 0081     data_entry_active = 0;
                 _0x60017:
0003cb e0e0      	LDI  R30,LOW(0)
0003cc 93e0 02ff 	STS  _data_entry_active_G003,R30
                 ; 0003 0082     data_length = 0;
0003ce 93e0 02ea 	STS  _data_length_G003,R30
                 ; 0003 0083     return DATA_SET;
0003d0 e0e1      	LDI  R30,LOW(1)
0003d1 940e 0a51 	CALL __LOADLOCR6
0003d3 940c 0856 	JMP  _0x2100007
                 ; 0003 0084 }
                 ;#include <mega16.h>
                 	#ifndef __SLEEP_DEFINED__
                 	#endif
                 ;#include "timer.h"
                 ;#include <stdio.h>
                 ;
                 ;static volatile unsigned char flag_tim1 = 0;
                 ;
                 ;
                 ;interrupt [TIM1_COMPA] void timer1_compa_isr(void)
                 ; 0004 0009 {
                 
                 	.CSEG
                 _timer1_compa_isr:
0003d5 93ea      	ST   -Y,R30
0003d6 93fa      	ST   -Y,R31
                 ; 0004 000A     TCNT1 = 0;
0003d7 e0e0      	LDI  R30,LOW(0)
0003d8 e0f0      	LDI  R31,HIGH(0)
0003d9 bdfd      	OUT  0x2C+1,R31
0003da bdec      	OUT  0x2C,R30
                 ; 0004 000B     flag_tim1 = 1;
0003db e0e1      	LDI  R30,LOW(1)
0003dc 93e0 0300 	STS  _flag_tim1_G004,R30
                 ; 0004 000C }
0003de 91f9      	LD   R31,Y+
0003df 91e9      	LD   R30,Y+
0003e0 9518      	RETI
                 ;
                 ;
                 ;
                 ;void TIMER1Init(void)
                 ; 0004 0011 {
                 _TIMER1Init:
                 ; 0004 0012     // Registradores para configurar o Timer1
                 ; 0004 0013     TCCR1B |= 0x04; // Prescaler de 64
0003e1 b5ee      	IN   R30,0x2E
0003e2 60e4      	ORI  R30,4
0003e3 bdee      	OUT  0x2E,R30
                 ; 0004 0014     TIMSK |= 0x10; // Habilita interrupĂ§ĂŁo do Timer1 sem desabilitar o Timer0
0003e4 b7e9      	IN   R30,0x39
0003e5 61e0      	ORI  R30,0x10
0003e6 bfe9      	OUT  0x39,R30
                 ; 0004 0015     OCR1A = 0x00;
0003e7 e0e0      	LDI  R30,LOW(0)
0003e8 e0f0      	LDI  R31,HIGH(0)
0003e9 bdfb      	OUT  0x2A+1,R31
0003ea bdea      	OUT  0x2A,R30
                 ; 0004 0016 }
0003eb 9508      	RET
                 ;
                 ;void UpdateTIMER1CompareValue(unsigned int time)
                 ; 0004 0019 {
                 _UpdateTIMER1CompareValue:
                 ; 0004 001A     // Recebe um periodo em ms e atualiza o valor do registrador de comparacao A do Timer1
                 ; 0004 001B     OCR1A = (int)((14400UL * time) / 1000UL) - 1;
                 ;	time -> Y+0
0003ec 81e8      	LD   R30,Y
0003ed 81f9      	LDD  R31,Y+1
0003ee 2766      	CLR  R22
0003ef 2777      	CLR  R23
                +
0003f0 e4a0     +LDI R26 , LOW ( 0x3840 )
0003f1 e3b8     +LDI R27 , HIGH ( 0x3840 )
0003f2 e080     +LDI R24 , BYTE3 ( 0x3840 )
0003f3 e090     +LDI R25 , BYTE4 ( 0x3840 )
                 	__GETD2N 0x3840
0003f4 940e 09d7 	CALL __MULD12U
0003f6 01df      	MOVW R26,R30
0003f7 01cb      	MOVW R24,R22
                +
0003f8 eee8     +LDI R30 , LOW ( 0x3E8 )
0003f9 e0f3     +LDI R31 , HIGH ( 0x3E8 )
0003fa e060     +LDI R22 , BYTE3 ( 0x3E8 )
0003fb e070     +LDI R23 , BYTE4 ( 0x3E8 )
                 	__GETD1N 0x3E8
0003fc 940e 0a0a 	CALL __DIVD21U
0003fe 2766      	CLR  R22
0003ff 2777      	CLR  R23
000400 9731      	SBIW R30,1
000401 bdfb      	OUT  0x2A+1,R31
000402 bdea      	OUT  0x2A,R30
                 ; 0004 001C }
000403 940c 087d 	JMP  _0x2100001
                 ;
                 ;unsigned char GetTIMER1Flag(void)
                 ; 0004 001F {
                 _GetTIMER1Flag:
                 ; 0004 0020     return flag_tim1;
000405 91e0 0300 	LDS  R30,_flag_tim1_G004
000407 9508      	RET
                 ; 0004 0021 }
                 ;
                 ;void SetTIMER1Flag(unsigned char value)
                 ; 0004 0024 {
                 _SetTIMER1Flag:
                 ; 0004 0025     flag_tim1 = value;
                 ;	value -> Y+0
000408 81e8      	LD   R30,Y
000409 93e0 0300 	STS  _flag_tim1_G004,R30
                 ; 0004 0026 }
00040b 940c 0819 	JMP  _0x2100008
                 ;
                 ;
                 ;#include <mega16.h>
                 	#ifndef __SLEEP_DEFINED__
                 	#endif
                 ;#include <delay.h>
                 ;#include <alcd.h>
                 ;#include "config.h"
                 ;#include "keypad.h"
                 ;#include "password.h"
                 ;#include "buzzer.h"
                 ;#include "lcd.h"
                 ;
                 ;#define KEYIN PINC // PINC0..3 para entrada do teclado nas linhas
                 ;#define KEYOUT PORTC // PORTC4..6 para saida do teclado nas colunas
                 ;#define FIRST_COLUMN 0x40
                 ;#define LAST_COLUMN 0x10
                 ;
                 ;#define ROW_LENGTH 4
                 ;#define COLUMN_LENGTH 3
                 ;
                 ;typedef unsigned char byte;
                 ;unsigned keys; // armazena cada estado da chave
                 ;
                 ;static const char keymap[ROW_LENGTH * COLUMN_LENGTH] = {
                 ;   '1', '4', '7', '<',
                 ;   '2', '5', '8', '0',
                 ;   '3', '6', '9', '#'
                 ;};
                 ;
                 ;interrupt [TIM0_OVF] void timer0_ovf_isr(void)
                 ; 0005 001C {
                 
                 	.CSEG
                 _timer0_ovf_isr:
00040d 93aa      	ST   -Y,R26
00040e 93ba      	ST   -Y,R27
00040f 93ea      	ST   -Y,R30
000410 93fa      	ST   -Y,R31
000411 b7ef      	IN   R30,SREG
000412 93ea      	ST   -Y,R30
                 ; 0005 001D    // InterrupĂ§ĂŁo do Timer0 para varredura do teclado a cada 2ms
                 ; 0005 001E    static byte key_pressed_counter = 10;
                 
                 	.DSEG
                 
                 	.CSEG
                 ; 0005 001F    static byte key_released_counter, column = FIRST_COLUMN;
                 
                 	.DSEG
                 
                 	.CSEG
                 ; 0005 0020    static unsigned row_data, crt_key;
                 ; 0005 0021 
                 ; 0005 0022    // Reinicia o timer0
                 ; 0005 0023    TCNT0 = 0x8D; // 2ms
000413 e8ed      	LDI  R30,LOW(141)
000414 bfe2      	OUT  0x32,R30
                 ; 0005 0024 
                 ; 0005 0025    row_data <<= 4;
000415 940e 08d5 	CALL SUBOPT_0x8
000417 940e 09ce 	CALL __LSLW4
000419 93e0 0304 	STS  _row_data_S0050000000,R30
00041b 93f0 0305 	STS  _row_data_S0050000000+1,R31
                 ; 0005 0026    row_data |= ~(KEYIN)&0xF; // le as linhas do teclado
00041d b3e3      	IN   R30,0x13
00041e e0f0      	LDI  R31,0
00041f 95e0      	COM  R30
000420 95f0      	COM  R31
000421 70ef      	ANDI R30,LOW(0xF)
000422 70f0      	ANDI R31,HIGH(0xF)
000423 91a0 0304 	LDS  R26,_row_data_S0050000000
000425 91b0 0305 	LDS  R27,_row_data_S0050000000+1
000427 2bea      	OR   R30,R26
000428 2bfb      	OR   R31,R27
000429 93e0 0304 	STS  _row_data_S0050000000,R30
00042b 93f0 0305 	STS  _row_data_S0050000000+1,R31
                 ; 0005 0027    column >>= 1; // muda para a proxima coluna
00042d 91e0 0303 	LDS  R30,_column_S0050000000
00042f e0f0      	LDI  R31,0
000430 95f5      	ASR  R31
000431 95e7      	ROR  R30
000432 93e0 0303 	STS  _column_S0050000000,R30
                 ; 0005 0028 
                 ; 0005 0029    if(column == (LAST_COLUMN >> 1)) // se chegou na ultima coluna
000434 91a0 0303 	LDS  R26,_column_S0050000000
000436 30a8      	CPI  R26,LOW(0x8)
000437 f5d1      	BRNE _0xA0005
                 ; 0005 002A    {
                 ; 0005 002B       column = FIRST_COLUMN; // volta para a primeira coluna
000438 e4e0      	LDI  R30,LOW(64)
000439 93e0 0303 	STS  _column_S0050000000,R30
                 ; 0005 002C 
                 ; 0005 002D       // Verifica se alguma tecla foi pressionada, logica para debouncing
                 ; 0005 002E       if(row_data == 0)
00043b 940e 08d5 	CALL SUBOPT_0x8
00043d 9730      	SBIW R30,0
00043e f0f9      	BREQ _0xA0007
                 ; 0005 002F       {
                 ; 0005 0030          goto new_key;
                 ; 0005 0031       }
                 ; 0005 0032       if(key_released_counter)
00043f 91e0 0302 	LDS  R30,_key_released_counter_S0050000000
000441 30e0      	CPI  R30,0
000442 f011      	BREQ _0xA0008
                 ; 0005 0033       {
                 ; 0005 0034          --key_released_counter;
000443 50e1      	SUBI R30,LOW(1)
000444 c026      	RJMP _0xA0024
                 ; 0005 0035       }
                 ; 0005 0036       else
                 _0xA0008:
                 ; 0005 0037       {
                 ; 0005 0038          if(--key_pressed_counter == 9)
000445 91a0 0301 	LDS  R26,_key_pressed_counter_S0050000000
000447 50a1      	SUBI R26,LOW(1)
000448 93a0 0301 	STS  _key_pressed_counter_S0050000000,R26
00044a 30a9      	CPI  R26,LOW(0x9)
00044b f439      	BRNE _0xA000A
                 ; 0005 0039          {
                 ; 0005 003A             crt_key = row_data;
00044c 940e 08d5 	CALL SUBOPT_0x8
00044e 93e0 0306 	STS  _crt_key_S0050000000,R30
000450 93f0 0307 	STS  _crt_key_S0050000000+1,R31
                 ; 0005 003B          }
                 ; 0005 003C          else
000452 c01a      	RJMP _0xA000B
                 _0xA000A:
                 ; 0005 003D          {
                 ; 0005 003E             if(row_data != crt_key)
000453 91e0 0306 	LDS  R30,_crt_key_S0050000000
000455 91f0 0307 	LDS  R31,_crt_key_S0050000000+1
000457 91a0 0304 	LDS  R26,_row_data_S0050000000
000459 91b0 0305 	LDS  R27,_row_data_S0050000000+1
00045b 17ea      	CP   R30,R26
00045c 07fb      	CPC  R31,R27
00045d f021      	BREQ _0xA000C
                 ; 0005 003F             {
                 ; 0005 0040                new_key:
                 _0xA0007:
                 ; 0005 0041                   key_pressed_counter = 10;
00045e e0ea      	LDI  R30,LOW(10)
00045f 93e0 0301 	STS  _key_pressed_counter_S0050000000,R30
                 ; 0005 0042                   key_released_counter = 10;
000461 c009      	RJMP _0xA0024
                 ; 0005 0043                   goto end_key;
                 ; 0005 0044             }
                 ; 0005 0045             if(!key_pressed_counter)
                 _0xA000C:
000462 91e0 0301 	LDS  R30,_key_pressed_counter_S0050000000
000464 30e0      	CPI  R30,0
000465 f439      	BRNE _0xA000E
                 ; 0005 0046             {
                 ; 0005 0047                keys = row_data;
                +
000466 9040 0304+LDS R4 , 0 + ( _row_data_S0050000000 )
000468 9050 0305+LDS R5 , 0 + ( _row_data_S0050000000 ) + 1
                 	__GETWRMN 4,5,0,_row_data_S0050000000
                 ; 0005 0048                key_released_counter = 20;
00046a e1e4      	LDI  R30,LOW(20)
                 _0xA0024:
00046b 93e0 0302 	STS  _key_released_counter_S0050000000,R30
                 ; 0005 0049             }
                 ; 0005 004A          }
                 _0xA000E:
                 _0xA000B:
                 ; 0005 004B       }
                 ; 0005 004C    end_key:
                 ; 0005 004D       row_data = 0;
00046d e0e0      	LDI  R30,LOW(0)
00046e 93e0 0304 	STS  _row_data_S0050000000,R30
000470 93e0 0305 	STS  _row_data_S0050000000+1,R30
                 ; 0005 004E    }
                 ; 0005 004F    KEYOUT = ~column; // seleciona a proxima coluna do teclado
                 _0xA0005:
000472 91e0 0303 	LDS  R30,_column_S0050000000
000474 95e0      	COM  R30
000475 bbe5      	OUT  0x15,R30
                 ; 0005 0050 }
000476 91e9      	LD   R30,Y+
000477 bfef      	OUT  SREG,R30
000478 91f9      	LD   R31,Y+
000479 91e9      	LD   R30,Y+
00047a 91b9      	LD   R27,Y+
00047b 91a9      	LD   R26,Y+
00047c 9518      	RETI
                 ;
                 ;unsigned InKey(void)
                 ; 0005 0053 {
                 _InKey:
                 ; 0005 0054    // Retorna o valor da tecla pressionada, se houver
                 ; 0005 0055    unsigned k;
                 ; 0005 0056    if (k=keys)
00047d 931a      	ST   -Y,R17
00047e 930a      	ST   -Y,R16
                 ;	k -> R16,R17
00047f 01f2      	MOVW R30,R4
000480 018f      	MOVW R16,R30
000481 9730      	SBIW R30,0
000482 f011      	BREQ _0xA000F
                 ; 0005 0057       keys = 0;
000483 2444      	CLR  R4
000484 2455      	CLR  R5
                 ; 0005 0058    return k;
                 _0xA000F:
000485 01f8      	MOVW R30,R16
000486 9109      	LD   R16,Y+
000487 9119      	LD   R17,Y+
000488 9508      	RET
                 ; 0005 0059 }
                 ;
                 ;void KEYPADInit(void)
                 ; 0005 005C {
                 _KEYPADInit:
                 ; 0005 005D    // Configuracoes dos registradores do teclado
                 ; 0005 005E    DDRC |= 0x70; // Bits 0..3: entrada, 4..6: saida - Ultima coluna inativa
000489 b3e4      	IN   R30,0x14
00048a 67e0      	ORI  R30,LOW(0x70)
00048b bbe4      	OUT  0x14,R30
                 ; 0005 005F    PORTC |= 0x7f; // saida alta em 4..6
00048c b3e5      	IN   R30,0x15
00048d 67ef      	ORI  R30,LOW(0x7F)
00048e bbe5      	OUT  0x15,R30
                 ; 0005 0060 
                 ; 0005 0061    // Configuracoes do Timer0 para varredura do teclado a cada 2ms
                 ; 0005 0062    TCCR0 |= 0x04;
00048f b7e3      	IN   R30,0x33
000490 60e4      	ORI  R30,4
000491 bfe3      	OUT  0x33,R30
                 ; 0005 0063    TCNT0 |= 0x8D;
000492 b7e2      	IN   R30,0x32
000493 68ed      	ORI  R30,LOW(0x8D)
000494 bfe2      	OUT  0x32,R30
                 ; 0005 0064 
                 ; 0005 0065    TIMSK |= 0x01; // habilita interrupcao do Timer0
000495 b7e9      	IN   R30,0x39
000496 60e1      	ORI  R30,1
000497 bfe9      	OUT  0x39,R30
                 ; 0005 0066 }
000498 9508      	RET
                 ;
                 ;unsigned char KeyToIndex (unsigned key)
                 ; 0005 0069 {
                 _KeyToIndex:
                 ; 0005 006A    // Converte o valor da tecla pressionada para um Ă­ndice de 0 a 11
                 ; 0005 006B    unsigned char i;
                 ; 0005 006C 
                 ; 0005 006D     for (i = 0; i < 12; i++)
000499 931a      	ST   -Y,R17
                 ;	key -> Y+1
                 ;	i -> R17
00049a e010      	LDI  R17,LOW(0)
                 _0xA0011:
00049b 301c      	CPI  R17,12
00049c f488      	BRSH _0xA0012
                 ; 0005 006E     {
                 ; 0005 006F         if (key & (1U << i))
00049d 2fe1      	MOV  R30,R17
00049e e0a1      	LDI  R26,LOW(1)
00049f e0b0      	LDI  R27,HIGH(1)
0004a0 940e 09c5 	CALL __LSLW12
0004a2 81a9      	LDD  R26,Y+1
0004a3 81ba      	LDD  R27,Y+1+1
0004a4 23ea      	AND  R30,R26
0004a5 23fb      	AND  R31,R27
0004a6 9730      	SBIW R30,0
0004a7 f021      	BREQ _0xA0013
                 ; 0005 0070 
                 ; 0005 0071          return i;
0004a8 2fe1      	MOV  R30,R17
0004a9 8118      	LDD  R17,Y+0
0004aa 940c 086b 	JMP  _0x2100005
                 ; 0005 0072     }
                 _0xA0013:
0004ac 5f1f      	SUBI R17,-1
0004ad cfed      	RJMP _0xA0011
                 _0xA0012:
                 ; 0005 0073 }
0004ae 8118      	LDD  R17,Y+0
0004af 940c 086b 	JMP  _0x2100005
                 ;
                 ;void KEYPADProcess(SystemState state)
                 ; 0005 0076 {
                 _KEYPADProcess:
                 ; 0005 0077    // Processa a tecla pressionada, se houver
                 ; 0005 0078    unsigned k;
                 ; 0005 0079    unsigned char index;
                 ; 0005 007A    char key;
                 ; 0005 007B    static PasswordResult password_result;
                 ; 0005 007C    static Data data_result;
                 ; 0005 007D 
                 ; 0005 007E    if(k=InKey())
0004b1 940e 0a4c 	CALL __SAVELOCR4
                 ;	state -> Y+4
                 ;	k -> R16,R17
                 ;	index -> R19
                 ;	key -> R18
0004b3 dfc9      	RCALL _InKey
0004b4 018f      	MOVW R16,R30
0004b5 9730      	SBIW R30,0
0004b6 f411      	BRNE PC+3
0004b7 940c 051a 	JMP _0xA0014
                 ; 0005 007F    {
                 ; 0005 0080       index = KeyToIndex(k);
0004b9 931a      	ST   -Y,R17
0004ba 930a      	ST   -Y,R16
0004bb dfdd      	RCALL _KeyToIndex
0004bc 2f3e      	MOV  R19,R30
                 ; 0005 0081       key = keymap[index];
0004bd 940e 08da 	CALL SUBOPT_0x9
0004bf 9124      	LPM  R18,Z
                 ; 0005 0082       if (key == '<') // Tecla <
0004c0 332c      	CPI  R18,60
0004c1 f449      	BRNE _0xA0015
                 ; 0005 0083       {
                 ; 0005 0084         if (state == ST_SET_DATA)
0004c2 81ac      	LDD  R26,Y+4
0004c3 30a3      	CPI  R26,LOW(0x3)
0004c4 f419      	BRNE _0xA0016
                 ; 0005 0085         {
                 ; 0005 0086             CleanLastDataDigit();
0004c5 940e 032e 	CALL _CleanLastDataDigit
                 ; 0005 0087             return;
0004c7 c052      	RJMP _0x2100009
                 ; 0005 0088         }
                 ; 0005 0089         CleanLastPasswordDigit();
                 _0xA0016:
0004c8 940e 031c 	CALL _CleanLastPasswordDigit
                 ; 0005 008A       }
                 ; 0005 008B       else if (key == '#') // Tecla #
0004ca c04f      	RJMP _0xA0017
                 _0xA0015:
0004cb 3223      	CPI  R18,35
0004cc f5e9      	BRNE _0xA0018
                 ; 0005 008C       {
                 ; 0005 008D          if(state == ST_SET_DATA)
0004cd 81ac      	LDD  R26,Y+4
0004ce 30a3      	CPI  R26,LOW(0x3)
0004cf f469      	BRNE _0xA0019
                 ; 0005 008E          {
                 ; 0005 008F             data_result = DataSet();
0004d0 940e 0370 	CALL _DataSet
0004d2 93e0 0309 	STS  _data_result_S0050004000,R30
                 ; 0005 0090             delay_ms(1000);
0004d4 940e 08df 	CALL SUBOPT_0xA
                 ; 0005 0091             if(data_result == DATA_SET)
0004d6 91a0 0309 	LDS  R26,_data_result_S0050004000
0004d8 30a1      	CPI  R26,LOW(0x1)
0004d9 f411      	BRNE _0xA001A
                 ; 0005 0092             {
                 ; 0005 0093                 LCDUpdate(ST_ARMING_DELAY);
0004da 940e 08e2 	CALL SUBOPT_0xB
                 ; 0005 0094                 SystemSetState(ST_ARMING_DELAY);
                 ; 0005 0095             }
                 ; 0005 0096             return;
                 _0xA001A:
0004dc c03d      	RJMP _0x2100009
                 ; 0005 0097          }
                 ; 0005 0098          password_result = PasswordConfirm();
                 _0xA0019:
0004dd 940e 0347 	CALL _PasswordConfirm
0004df 93e0 0308 	STS  _password_result_S0050004000,R30
                 ; 0005 0099          delay_ms(1000);
0004e1 940e 08df 	CALL SUBOPT_0xA
                 ; 0005 009A          if (password_result == PASSWORD_INCORRECT)
0004e3 91a0 0308 	LDS  R26,_password_result_S0050004000
0004e5 30a2      	CPI  R26,LOW(0x2)
0004e6 f431      	BRNE _0xA001B
                 ; 0005 009B          {
                 ; 0005 009C             SystemSetState(state);
0004e7 81ec      	LDD  R30,Y+4
0004e8 93ea      	ST   -Y,R30
0004e9 940e 01de 	CALL _SystemSetState
                 ; 0005 009D             BeepSound();
0004eb d05a      	RCALL _BeepSound
                 ; 0005 009E          }
                 ; 0005 009F          else if (password_result == PASSWORD_CORRECT)
0004ec c01c      	RJMP _0xA001C
                 _0xA001B:
0004ed 91a0 0308 	LDS  R26,_password_result_S0050004000
0004ef 30a1      	CPI  R26,LOW(0x1)
0004f0 f4c1      	BRNE _0xA001D
                 ; 0005 00A0          {
                 ; 0005 00A1             if(state == ST_DISARMED)
0004f1 81ac      	LDD  R26,Y+4
0004f2 30a4      	CPI  R26,LOW(0x4)
0004f3 f419      	BRNE _0xA001E
                 ; 0005 00A2             {
                 ; 0005 00A3                 LCDUpdate(ST_ARMING_DELAY);
0004f4 940e 08e2 	CALL SUBOPT_0xB
                 ; 0005 00A4                 SystemSetState(ST_ARMING_DELAY);
                 ; 0005 00A5             }
                 ; 0005 00A6             else
0004f6 c012      	RJMP _0xA001F
                 _0xA001E:
                 ; 0005 00A7             {
                 ; 0005 00A8                 SystemSetState(ST_DISARMED);
0004f7 e0e4      	LDI  R30,LOW(4)
0004f8 93ea      	ST   -Y,R30
0004f9 940e 01de 	CALL _SystemSetState
                 ; 0005 00A9 
                 ; 0005 00AA                 lcd_clear();
0004fb 940e 07b8 	CALL _lcd_clear
                 ; 0005 00AB 
                 ; 0005 00AC                 lcd_puts("    Sistema");
                +
0004fd ecec     +LDI R30 , LOW ( _0xA0020 + ( 0 ) )
0004fe e0f2     +LDI R31 , HIGH ( _0xA0020 + ( 0 ) )
                 	__POINTW1MN _0xA0020,0
0004ff 940e 08bf 	CALL SUBOPT_0x4
                 ; 0005 00AD                 lcd_gotoxy(0,1);
                 ; 0005 00AE                 lcd_puts("  Desarmado");
                +
000501 ede8     +LDI R30 , LOW ( _0xA0020 + ( 12 ) )
000502 e0f2     +LDI R31 , HIGH ( _0xA0020 + ( 12 ) )
                 	__POINTW1MN _0xA0020,12
000503 93fa      	ST   -Y,R31
000504 93ea      	ST   -Y,R30
000505 940e 07da 	CALL _lcd_puts
                 ; 0005 00AF                 delay_ms(1000);
000507 940e 08df 	CALL SUBOPT_0xA
                 ; 0005 00B0             }
                 _0xA001F:
                 ; 0005 00B1          }
                 ; 0005 00B2       }
                 _0xA001D:
                 _0xA001C:
                 ; 0005 00B3       else
000509 c010      	RJMP _0xA0021
                 _0xA0018:
                 ; 0005 00B4       {
                 ; 0005 00B5         if(state == ST_SET_DATA)
00050a 81ac      	LDD  R26,Y+4
00050b 30a3      	CPI  R26,LOW(0x3)
00050c f439      	BRNE _0xA0022
                 ; 0005 00B6         {
                 ; 0005 00B7             DataInput(keymap[index]);
00050d 940e 08da 	CALL SUBOPT_0x9
00050f 91e4      	LPM  R30,Z
000510 93ea      	ST   -Y,R30
000511 940e 02f4 	CALL _DataInput
                 ; 0005 00B8         }
                 ; 0005 00B9         else
000513 c006      	RJMP _0xA0023
                 _0xA0022:
                 ; 0005 00BA         {
                 ; 0005 00BB             PasswordInput(keymap[index]);
000514 940e 08da 	CALL SUBOPT_0x9
000516 91e4      	LPM  R30,Z
000517 93ea      	ST   -Y,R30
000518 940e 02da 	CALL _PasswordInput
                 ; 0005 00BC         }
                 _0xA0023:
                 ; 0005 00BD       }
                 _0xA0021:
                 _0xA0017:
                 ; 0005 00BE    }
                 ; 0005 00BF }
                 _0xA0014:
                 _0x2100009:
00051a 940e 0a53 	CALL __LOADLOCR4
00051c 9625      	ADIW R28,5
00051d 9508      	RET
                 
                 	.DSEG
                 _0xA0020:
0002cc           	.BYTE 0x18
                 ;#include <mega16.h>
                 	#ifndef __SLEEP_DEFINED__
                 	#endif
                 ;#include "pwm.h"
                 ;
                 ;void PWMInit(void)
                 ; 0006 0005 {
                 
                 	.CSEG
                 _PWMInit:
                 ; 0006 0006     // Configuracoes do PWM no modo geracao de onda quadrada no timer 2
                 ; 0006 0007     // modo CTC (clear timer on compare match), prescaler = 1024, pino PD7 pro PWM2
                 ; 0006 0008     TCCR2 |= 0b00011100;
00051e b5e5      	IN   R30,0x25
00051f 61ec      	ORI  R30,LOW(0x1C)
000520 bde5      	OUT  0x25,R30
                 ; 0006 0009     DDRD |= 0x80;
000521 9a8f      	SBI  0x11,7
                 ; 0006 000A }
000522 9508      	RET
                 ;
                 ;void SetPWMFrequency(unsigned int frequency)
                 ; 0006 000D {
                 _SetPWMFrequency:
                 ; 0006 000E     // Altera o registrador OCR2 para alterar a frequencia do PWM
                 ; 0006 000F     unsigned char reg;
                 ; 0006 0010 
                 ; 0006 0011     if(frequency == 0) {
000523 931a      	ST   -Y,R17
                 ;	frequency -> Y+1
                 ;	reg -> R17
000524 81e9      	LDD  R30,Y+1
000525 81fa      	LDD  R31,Y+1+1
000526 9730      	SBIW R30,0
000527 f421      	BRNE _0xC0003
                 ; 0006 0012         DDRD &= ~0x80; // Desliga o pino PD7
000528 988f      	CBI  0x11,7
                 ; 0006 0013         return;
000529 8118      	LDD  R17,Y+0
00052a 940c 086b 	JMP  _0x2100005
                 ; 0006 0014     }
                 ; 0006 0015 
                 ; 0006 0016     DDRD |= 0x80;
                 _0xC0003:
00052c 9a8f      	SBI  0x11,7
                 ; 0006 0017 
                 ; 0006 0018     reg = (unsigned char)((14745600UL / (128UL * frequency)) - 1);
00052d 81e9      	LDD  R30,Y+1
00052e 81fa      	LDD  R31,Y+1+1
00052f 2766      	CLR  R22
000530 2777      	CLR  R23
                +
000531 e8a0     +LDI R26 , LOW ( 0x80 )
000532 e0b0     +LDI R27 , HIGH ( 0x80 )
000533 e080     +LDI R24 , BYTE3 ( 0x80 )
000534 e090     +LDI R25 , BYTE4 ( 0x80 )
                 	__GETD2N 0x80
000535 940e 09d7 	CALL __MULD12U
                +
000537 e0a0     +LDI R26 , LOW ( 0xE10000 )
000538 e0b0     +LDI R27 , HIGH ( 0xE10000 )
000539 ee81     +LDI R24 , BYTE3 ( 0xE10000 )
00053a e090     +LDI R25 , BYTE4 ( 0xE10000 )
                 	__GETD2N 0xE10000
00053b 940e 0a0a 	CALL __DIVD21U
                +
00053d 50e1     +SUBI R30 , LOW ( 1 )
00053e 40f0     +SBCI R31 , HIGH ( 1 )
00053f 4060     +SBCI R22 , BYTE3 ( 1 )
000540 4070     +SBCI R23 , BYTE4 ( 1 )
                 	__SUBD1N 1
000541 2f1e      	MOV  R17,R30
                 ; 0006 0019     OCR2 = reg;
000542 bd13      	OUT  0x23,R17
                 ; 0006 001A }
000543 8118      	LDD  R17,Y+0
000544 940c 086b 	JMP  _0x2100005
                 ;#include "pwm.h"
                 ;#include "buzzer.h"
                 ;#include "timer.h"
                 ;
                 ;void PoliceSiren(void)
                 ; 0007 0006 {
                 
                 	.CSEG
                 ; 0007 0007     static unsigned int f;
                 ; 0007 0008     static bit drive = 1;  // Variavel para controlar a direcao da frequencia: 1 - subindo, 0 - descendo
                 ; 0007 0009 
                 ; 0007 000A     UpdateTIMER1CompareValue(20);
                 ; 0007 000B 
                 ; 0007 000C     if(GetTIMER1Flag())
                 ; 0007 000D     {
                 ; 0007 000E         SetTIMER1Flag(0);
                 ; 0007 000F 
                 ; 0007 0010         if (drive == 1)
                 ; 0007 0011         {
                 ; 0007 0012             f += 10;
                 ; 0007 0013             if (f >= 1400) {
                 ; 0007 0014                 drive = 0;
                 ; 0007 0015             }
                 ; 0007 0016         }
                 ; 0007 0017         else
                 ; 0007 0018         {
                 ; 0007 0019             f -= 10;
                 ; 0007 001A             if (f <= 600) {
                 ; 0007 001B                 drive = 1;
                 ; 0007 001C             }
                 ; 0007 001D         }
                 ; 0007 001E 
                 ; 0007 001F         SetPWMFrequency(f);
                 ; 0007 0020     }
                 ; 0007 0021 }
                 ;
                 ;void FireAlarm(void)
                 ; 0007 0024 {
                 ; 0007 0025     static unsigned int f[2] = {700, 555};
                 
                 	.DSEG
                 
                 	.CSEG
                 ; 0007 0026     static bit drive = 0;
                 ; 0007 0027 
                 ; 0007 0028     UpdateTIMER1CompareValue(20);
                 ; 0007 0029 
                 ; 0007 002A     if(GetTIMER1Flag())
                 ; 0007 002B     {
                 ; 0007 002C         SetTIMER1Flag(0);
                 ; 0007 002D 
                 ; 0007 002E         if (drive == 0)
                 ; 0007 002F         {
                 ; 0007 0030             f[drive] += 5;
                 ; 0007 0031             if (f[drive] >= 740)
                 ; 0007 0032             {
                 ; 0007 0033                 drive = 1;
                 ; 0007 0034                 f[0] = 700;
                 ; 0007 0035             }
                 ; 0007 0036         }
                 ; 0007 0037         else
                 ; 0007 0038         {
                 ; 0007 0039             f[drive] -= 5;
                 ; 0007 003A             if (f[drive] <= 455)
                 ; 0007 003B             {
                 ; 0007 003C                 drive = 0;
                 ; 0007 003D                 f[1] = 555;
                 ; 0007 003E             }
                 ; 0007 003F         }
                 ; 0007 0040     }
                 ; 0007 0041 }
                 ;
                 ;void StopSound(void)
                 ; 0007 0044 {
                 ; 0007 0045     SetPWMFrequency(0);
                 ; 0007 0046     UpdateTIMER1CompareValue(0);
                 ; 0007 0047 }
                 ;
                 ;void BeepSound(void)
                 ; 0007 004A {
                 _BeepSound:
                 ; 0007 004B     UpdateTIMER1CompareValue(100);
000546 e6e4      	LDI  R30,LOW(100)
000547 e0f0      	LDI  R31,HIGH(100)
000548 93fa      	ST   -Y,R31
000549 93ea      	ST   -Y,R30
00054a 940e 03ec 	CALL _UpdateTIMER1CompareValue
                 ; 0007 004C     if(GetTIMER1Flag()) {
00054c 940e 0405 	CALL _GetTIMER1Flag
00054e 30e0      	CPI  R30,0
00054f f039      	BREQ _0xE000E
                 ; 0007 004D         SetTIMER1Flag(0);
000550 e0e0      	LDI  R30,LOW(0)
000551 93ea      	ST   -Y,R30
000552 940e 0408 	CALL _SetTIMER1Flag
                 ; 0007 004E         SetPWMFrequency(450);
000554 ece2      	LDI  R30,LOW(450)
000555 e0f1      	LDI  R31,HIGH(450)
000556 c002      	RJMP _0xE001A
                 ; 0007 004F     }
                 ; 0007 0050     else {
                 _0xE000E:
                 ; 0007 0051         SetPWMFrequency(0);
000557 e0e0      	LDI  R30,LOW(0)
000558 e0f0      	LDI  R31,HIGH(0)
                 _0xE001A:
000559 93fa      	ST   -Y,R31
00055a 93ea      	ST   -Y,R30
00055b dfc7      	RCALL _SetPWMFrequency
                 ; 0007 0052     }
                 ; 0007 0053 }
00055c 9508      	RET
                 ;
                 ;void BuzzerUpdate(SystemState state)
                 ; 0007 0056 {
                 ; 0007 0057     switch (state)
                 ;	state -> Y+0
                 ; 0007 0058     {
                 ; 0007 0059         case ST_MOTION:
                 ; 0007 005A         case ST_SHOCK:
                 ; 0007 005B             PoliceSiren();
                 ; 0007 005C             break;
                 ; 0007 005D 
                 ; 0007 005E         case ST_OVERHEAT:
                 ; 0007 005F         case ST_FLAME:
                 ; 0007 0060             FireAlarm();
                 ; 0007 0061             break;
                 ; 0007 0062 
                 ; 0007 0063         default:
                 ; 0007 0064             StopSound();
                 ; 0007 0065             break;
                 ; 0007 0066     }
                 ; 0007 0067 }
                 ;#include <mega16.h>
                 	#ifndef __SLEEP_DEFINED__
                 	#endif
                 ;#include <stdio.h>
                 ;#include "sensors.h"
                 ;
                 ;bit flag_motion = 0;
                 ;static unsigned char flame;
                 ;static unsigned char shock;
                 ;
                 ;
                 ;void SENSORSInit(void) {
                 ; 0008 000A void SENSORSInit(void) {
                 
                 	.CSEG
                 _SENSORSInit:
                 ; 0008 000B     DDRB |= 0xC0; // Configura PORTB como entrada
00055d b3e7      	IN   R30,0x17
00055e 6ce0      	ORI  R30,LOW(0xC0)
00055f bbe7      	OUT  0x17,R30
                 ; 0008 000C     GICR |= 0b11000000;
000560 b7eb      	IN   R30,0x3B
000561 6ce0      	ORI  R30,LOW(0xC0)
000562 bfeb      	OUT  0x3B,R30
                 ; 0008 000D     MCUCR |= 0b00001110;
000563 b7e5      	IN   R30,0x35
000564 60ee      	ORI  R30,LOW(0xE)
000565 bfe5      	OUT  0x35,R30
                 ; 0008 000E }
000566 9508      	RET
                 ;
                 ;
                 ;interrupt [EXT_INT1] void int_ext1_motion (void)
                 ; 0008 0012 {
                 _int_ext1_motion:
000567 93ea      	ST   -Y,R30
000568 b7ef      	IN   R30,SREG
                 ; 0008 0013     flag_motion = 1;
000569 9468      	SET
00056a f826      	BLD  R2,6
                 ; 0008 0014 }
00056b bfef      	OUT  SREG,R30
00056c 91e9      	LD   R30,Y+
00056d 9518      	RETI
                 ;
                 ;void SensorsUpdate(void) {
                 ; 0008 0016 void SensorsUpdate(void) {
                 ; 0008 0017     flame = PINB.5;
                 ; 0008 0018     shock = PINB.7;
                 ; 0008 0019 
                 ; 0008 001A     if (flame && flag_motion && shock){
                 ; 0008 001B         SystemSetState(ST_FLAME);
                 ; 0008 001C     }
                 ; 0008 001D     else if (flame) {
                 ; 0008 001E         SystemSetState(ST_FLAME);
                 ; 0008 001F     }
                 ; 0008 0020     else if (flag_motion && shock){
                 ; 0008 0021         SystemSetState(ST_INVASION);
                 ; 0008 0022     }
                 ; 0008 0023     else if (shock) {
                 ; 0008 0024         SystemSetState(ST_SHOCK);
                 ; 0008 0025     }
                 ; 0008 0026     else if (flag_motion) {
                 ; 0008 0027         SystemSetState(ST_MOTION);
                 ; 0008 0028     }
                 ; 0008 0029     flag_motion = 0;
                 ; 0008 002A     return;
                 ; 0008 002B }
                 ;
                 ;#include <mega16.h>
                 	#ifndef __SLEEP_DEFINED__
                 	#endif
                 ;#include <ds1307.h>
                 ;#include <stdio.h>
                 ;#include <stdlib.h>
                 ;
                 ;#include "rtc.h"
                 ;
                 ;#define TIME_LENGTH 6
                 ;
                 ;void RTCInit(void)
                 ; 0009 000B {
                 
                 	.CSEG
                 _RTCInit:
                 ; 0009 000C     rtc_init(0,1,0); // 1Hz, pino de saida baixo
00056e e0e0      	LDI  R30,LOW(0)
00056f 93ea      	ST   -Y,R30
000570 e0e1      	LDI  R30,LOW(1)
000571 93ea      	ST   -Y,R30
000572 e0e0      	LDI  R30,LOW(0)
000573 93ea      	ST   -Y,R30
000574 940e 081b 	CALL _rtc_init
                 ; 0009 000D     DDRD |= 0b00000000;
000576 b3e1      	IN   R30,0x11
000577 bbe1      	OUT  0x11,R30
                 ; 0009 000E     PORTD |= 0b00000100;
000578 9a92      	SBI  0x12,2
                 ; 0009 000F }
000579 9508      	RET
                 ;
                 ;unsigned char *GetRTC(void)
                 ; 0009 0012 {
                 _GetRTC:
                 ; 0009 0013     char *time = (char*) malloc(TIME_LENGTH * sizeof(char));
                 ; 0009 0014     unsigned char dia, mes, ano, hor, min, seg;
                 ; 0009 0015     rtc_get_date(&dia, &mes, &ano);
00057a 9722      	SBIW R28,2
00057b 940e 0a4a 	CALL __SAVELOCR6
                 ;	*time -> R16,R17
                 ;	dia -> R19
                 ;	mes -> R18
                 ;	ano -> R21
                 ;	hor -> R20
                 ;	min -> Y+7
                 ;	seg -> Y+6
00057d e0e6      	LDI  R30,LOW(6)
00057e e0f0      	LDI  R31,HIGH(6)
00057f 93fa      	ST   -Y,R31
000580 93ea      	ST   -Y,R30
000581 940e 0871 	CALL _malloc
000583 018f      	MOVW R16,R30
000584 b7ed      	IN   R30,SPL
000585 b7fe      	IN   R31,SPH
000586 93fa      	ST   -Y,R31
000587 93ea      	ST   -Y,R30
000588 933f      	PUSH R19
000589 b7ed      	IN   R30,SPL
00058a b7fe      	IN   R31,SPH
00058b 93fa      	ST   -Y,R31
00058c 93ea      	ST   -Y,R30
00058d 932f      	PUSH R18
00058e b7ed      	IN   R30,SPL
00058f b7fe      	IN   R31,SPH
000590 93fa      	ST   -Y,R31
000591 93ea      	ST   -Y,R30
000592 935f      	PUSH R21
000593 940e 0848 	CALL _rtc_get_date
000595 915f      	POP  R21
000596 912f      	POP  R18
000597 913f      	POP  R19
                 ; 0009 0016     rtc_get_time(&hor, &min, &seg);
000598 b7ed      	IN   R30,SPL
000599 b7fe      	IN   R31,SPH
00059a 93fa      	ST   -Y,R31
00059b 93ea      	ST   -Y,R30
00059c 934f      	PUSH R20
00059d 01fe      	MOVW R30,R28
00059e 9639      	ADIW R30,9
00059f 93fa      	ST   -Y,R31
0005a0 93ea      	ST   -Y,R30
0005a1 01fe      	MOVW R30,R28
0005a2 963a      	ADIW R30,10
0005a3 93fa      	ST   -Y,R31
0005a4 93ea      	ST   -Y,R30
0005a5 940e 0830 	CALL _rtc_get_time
0005a7 914f      	POP  R20
                 ; 0009 0017     time[0] = ano;
0005a8 2fe5      	MOV  R30,R21
0005a9 01d8      	MOVW R26,R16
0005aa 93ec      	ST   X,R30
                 ; 0009 0018     time[1] = mes;
0005ab 01f8      	MOVW R30,R16
                +
0005ac 8321     +STD Z + 1 , R18
                 	__PUTBZR 18,1
                 ; 0009 0019     time[2] = dia;
                +
0005ad 8332     +STD Z + 2 , R19
                 	__PUTBZR 19,2
                 ; 0009 001A     time[3] = hor;
                +
0005ae 8343     +STD Z + 3 , R20
                 	__PUTBZR 20,3
                 ; 0009 001B     time[4] = min;
0005af 81ef      	LDD  R30,Y+7
                +
0005b0 01d8     +MOVW R26 , R16
0005b1 9614     +ADIW R26 , 4
0005b2 93ec     +ST X , R30
                 	__PUTB1RNS 16,4
                 ; 0009 001C     time[5] = seg;
0005b3 81ee      	LDD  R30,Y+6
                +
0005b4 01d8     +MOVW R26 , R16
0005b5 9615     +ADIW R26 , 5
0005b6 93ec     +ST X , R30
                 	__PUTB1RNS 16,5
                 ; 0009 001D     return time;
0005b7 01f8      	MOVW R30,R16
0005b8 940e 0a51 	CALL __LOADLOCR6
0005ba 9628      	ADIW R28,8
0005bb 9508      	RET
                 ; 0009 001E }
                 ;
                 ;void SetDateRTC(unsigned char dia, unsigned char mes, unsigned char ano){
                 ; 0009 0020 void SetDateRTC(unsigned char dia, unsigned char mes, unsigned char ano){
                 _SetDateRTC:
                 ; 0009 0021     rtc_set_date(dia, mes, ano);
                 ;	dia -> Y+2
                 ;	mes -> Y+1
                 ;	ano -> Y+0
0005bc 81ea      	LDD  R30,Y+2
0005bd 93ea      	ST   -Y,R30
0005be 81ea      	LDD  R30,Y+2
0005bf 93ea      	ST   -Y,R30
0005c0 81ea      	LDD  R30,Y+2
0005c1 93ea      	ST   -Y,R30
0005c2 940e 0858 	CALL _rtc_set_date
                 ; 0009 0022 }
0005c4 940c 086b 	JMP  _0x2100005
                 ;void SetTimeRTC(unsigned char hor, unsigned char min){
                 ; 0009 0023 void SetTimeRTC(unsigned char hor, unsigned char min){
                 _SetTimeRTC:
                 ; 0009 0024     rtc_set_time(hor, min, 0);
                 ;	hor -> Y+1
                 ;	min -> Y+0
0005c6 81e9      	LDD  R30,Y+1
0005c7 93ea      	ST   -Y,R30
0005c8 81e9      	LDD  R30,Y+1
0005c9 93ea      	ST   -Y,R30
0005ca e0e0      	LDI  R30,LOW(0)
0005cb 93ea      	ST   -Y,R30
0005cc 940e 083c 	CALL _rtc_set_time
                 ; 0009 0025 }
0005ce 940c 087d 	JMP  _0x2100001
                 ;
                 ;#include <mega16.h>
                 	#ifndef __SLEEP_DEFINED__
                 	#endif
                 ;#include <stdio.h>
                 ;#include <stdlib.h>
                 ;#include "usart.h"
                 ;#include "config.h"
                 ;#include "rtc.h"
                 ;
                 ;void USARTInit(void)
                 ; 000A 0009 {
                 
                 	.CSEG
                 _USARTInit:
                 ; 000A 000A     UCSRA=0x00;
0005d0 e0e0      	LDI  R30,LOW(0)
0005d1 b9eb      	OUT  0xB,R30
                 ; 000A 000B     UCSRB=0x08;
0005d2 e0e8      	LDI  R30,LOW(8)
0005d3 b9ea      	OUT  0xA,R30
                 ; 000A 000C     UCSRC=0x86;
0005d4 e8e6      	LDI  R30,LOW(134)
0005d5 bde0      	OUT  0x20,R30
                 ; 000A 000D     UBRRH=0x00;
0005d6 e0e0      	LDI  R30,LOW(0)
0005d7 bde0      	OUT  0x20,R30
                 ; 000A 000E     UBRRL=0x2F;
0005d8 e2ef      	LDI  R30,LOW(47)
0005d9 b9e9      	OUT  0x9,R30
                 ; 000A 000F }
0005da 9508      	RET
                 ;
                 ;void SerialUpdate(void){
                 ; 000A 0011 void SerialUpdate(void){
                 _SerialUpdate:
                 ; 000A 0012     unsigned char *ptr;
                 ; 000A 0013     SystemState state;
                 ; 000A 0014     ptr = GetRTC();
0005db 940e 0a4c 	CALL __SAVELOCR4
                 ;	*ptr -> R16,R17
                 ;	state -> R19
0005dd df9c      	RCALL _GetRTC
0005de 018f      	MOVW R16,R30
                 ; 000A 0015     state = SystemGetState();
0005df 940e 0215 	CALL _SystemGetState
0005e1 2f3e      	MOV  R19,R30
                 ; 000A 0016     printf("%d/%d/%d %d:%d:%d,%d,\r\n", *(ptr+2), *(ptr+1), *(ptr), *(ptr+3), *(ptr+4), *(ptr+5), state);
                +
0005e2 edee     +LDI R30 , LOW ( 2 * _0x140000 + ( 0 ) )
0005e3 e0f1     +LDI R31 , HIGH ( 2 * _0x140000 + ( 0 ) )
                 	__POINTW1FN _0x140000,0
0005e4 93fa      	ST   -Y,R31
0005e5 93ea      	ST   -Y,R30
0005e6 01f8      	MOVW R30,R16
0005e7 81e2      	LDD  R30,Z+2
0005e8 940e 08ea 	CALL SUBOPT_0xC
0005ea 01f8      	MOVW R30,R16
0005eb 81e1      	LDD  R30,Z+1
0005ec 940e 08ea 	CALL SUBOPT_0xC
0005ee 01d8      	MOVW R26,R16
0005ef 91ec      	LD   R30,X
0005f0 940e 08ea 	CALL SUBOPT_0xC
0005f2 01f8      	MOVW R30,R16
0005f3 81e3      	LDD  R30,Z+3
0005f4 940e 08ea 	CALL SUBOPT_0xC
0005f6 01f8      	MOVW R30,R16
0005f7 81e4      	LDD  R30,Z+4
0005f8 940e 08ea 	CALL SUBOPT_0xC
0005fa 01f8      	MOVW R30,R16
0005fb 81e5      	LDD  R30,Z+5
0005fc 940e 08ea 	CALL SUBOPT_0xC
0005fe 2fe3      	MOV  R30,R19
0005ff 940e 08ea 	CALL SUBOPT_0xC
000601 e18c      	LDI  R24,28
000602 940e 0754 	CALL _printf
000604 966e      	ADIW R28,30
                 ; 000A 0017     free(ptr);
000605 931a      	ST   -Y,R17
000606 930a      	ST   -Y,R16
000607 940e 0874 	CALL _free
                 ; 000A 0018 }
000609 940e 0a53 	CALL __LOADLOCR4
00060b 940c 086f 	JMP  _0x2100002
                 	#ifndef __SLEEP_DEFINED__
                 	#endif
                 
                 	.CSEG
                 _putchar:
                 putchar0:
00060d 9b5d           sbis usr,udre
00060e cffe           rjmp putchar0
00060f 81e8           ld   r30,y
000610 b9ec           out  udr,r30
000611 940c 0819 	JMP  _0x2100008
                 _put_usart_G100:
000613 81ea      	LDD  R30,Y+2
000614 93ea      	ST   -Y,R30
000615 dff7      	RCALL _putchar
000616 81a8      	LD   R26,Y
000617 81b9      	LDD  R27,Y+1
000618 91ed      	LD   R30,X+
000619 91fd      	LD   R31,X+
00061a 9631      	ADIW R30,1
00061b 93fe      	ST   -X,R31
00061c 93ee      	ST   -X,R30
00061d 940c 086b 	JMP  _0x2100005
                 __print_G100:
00061f 9726      	SBIW R28,6
000620 940e 0a4a 	CALL __SAVELOCR6
000622 e010      	LDI  R17,0
000623 85ac      	LDD  R26,Y+12
000624 85bd      	LDD  R27,Y+12+1
000625 e0e0      	LDI  R30,LOW(0)
000626 e0f0      	LDI  R31,HIGH(0)
000627 93ed      	ST   X+,R30
000628 93fc      	ST   X,R31
                 _0x2000016:
000629 89ea      	LDD  R30,Y+18
00062a 89fb      	LDD  R31,Y+18+1
00062b 9631      	ADIW R30,1
00062c 8bea      	STD  Y+18,R30
00062d 8bfb      	STD  Y+18+1,R31
00062e 9731      	SBIW R30,1
00062f 91e4      	LPM  R30,Z
000630 2f2e      	MOV  R18,R30
000631 30e0      	CPI  R30,0
000632 f411      	BRNE PC+3
000633 940c 074c 	JMP _0x2000018
000635 2fe1      	MOV  R30,R17
000636 30e0      	CPI  R30,0
000637 f439      	BRNE _0x200001C
000638 3225      	CPI  R18,37
000639 f411      	BRNE _0x200001D
00063a e011      	LDI  R17,LOW(1)
00063b c002      	RJMP _0x200001E
                 _0x200001D:
00063c 940e 08f0 	CALL SUBOPT_0xD
                 _0x200001E:
00063e c10c      	RJMP _0x200001B
                 _0x200001C:
00063f 30e1      	CPI  R30,LOW(0x1)
000640 f4a9      	BRNE _0x200001F
000641 3225      	CPI  R18,37
000642 f419      	BRNE _0x2000020
000643 940e 08f0 	CALL SUBOPT_0xD
000645 c104      	RJMP _0x20000C9
                 _0x2000020:
000646 e012      	LDI  R17,LOW(2)
000647 e040      	LDI  R20,LOW(0)
000648 e000      	LDI  R16,LOW(0)
000649 322d      	CPI  R18,45
00064a f411      	BRNE _0x2000021
00064b e001      	LDI  R16,LOW(1)
00064c c0fe      	RJMP _0x200001B
                 _0x2000021:
00064d 322b      	CPI  R18,43
00064e f411      	BRNE _0x2000022
00064f e24b      	LDI  R20,LOW(43)
000650 c0fa      	RJMP _0x200001B
                 _0x2000022:
000651 3220      	CPI  R18,32
000652 f411      	BRNE _0x2000023
000653 e240      	LDI  R20,LOW(32)
000654 c0f6      	RJMP _0x200001B
                 _0x2000023:
000655 c002      	RJMP _0x2000024
                 _0x200001F:
000656 30e2      	CPI  R30,LOW(0x2)
000657 f439      	BRNE _0x2000025
                 _0x2000024:
000658 e050      	LDI  R21,LOW(0)
000659 e013      	LDI  R17,LOW(3)
00065a 3320      	CPI  R18,48
00065b f411      	BRNE _0x2000026
00065c 6800      	ORI  R16,LOW(128)
00065d c0ed      	RJMP _0x200001B
                 _0x2000026:
00065e c004      	RJMP _0x2000027
                 _0x2000025:
00065f 30e3      	CPI  R30,LOW(0x3)
000660 f011      	BREQ PC+3
000661 940c 074b 	JMP _0x200001B
                 _0x2000027:
000663 3320      	CPI  R18,48
000664 f010      	BRLO _0x200002A
000665 332a      	CPI  R18,58
000666 f008      	BRLO _0x200002B
                 _0x200002A:
000667 c007      	RJMP _0x2000029
                 _0x200002B:
000668 e0aa      	LDI  R26,LOW(10)
000669 9f5a      	MUL  R21,R26
00066a 2d50      	MOV  R21,R0
00066b 2fe2      	MOV  R30,R18
00066c 53e0      	SUBI R30,LOW(48)
00066d 0f5e      	ADD  R21,R30
00066e c0dc      	RJMP _0x200001B
                 _0x2000029:
00066f 2fe2      	MOV  R30,R18
000670 36e3      	CPI  R30,LOW(0x63)
000671 f449      	BRNE _0x200002F
000672 940e 08f9 	CALL SUBOPT_0xE
000674 89e8      	LDD  R30,Y+16
000675 89f9      	LDD  R31,Y+16+1
000676 81a4      	LDD  R26,Z+4
000677 93aa      	ST   -Y,R26
000678 940e 08ff 	CALL SUBOPT_0xF
00067a c0cf      	RJMP _0x2000030
                 _0x200002F:
00067b 37e3      	CPI  R30,LOW(0x73)
00067c f441      	BRNE _0x2000032
00067d 940e 08f9 	CALL SUBOPT_0xE
00067f 940e 0907 	CALL SUBOPT_0x10
000681 940e 087f 	CALL _strlen
000683 2f1e      	MOV  R17,R30
000684 c00a      	RJMP _0x2000033
                 _0x2000032:
000685 37e0      	CPI  R30,LOW(0x70)
000686 f461      	BRNE _0x2000035
000687 940e 08f9 	CALL SUBOPT_0xE
000689 940e 0907 	CALL SUBOPT_0x10
00068b 940e 0889 	CALL _strlenf
00068d 2f1e      	MOV  R17,R30
00068e 6008      	ORI  R16,LOW(8)
                 _0x2000033:
00068f 6002      	ORI  R16,LOW(2)
000690 770f      	ANDI R16,LOW(127)
000691 e030      	LDI  R19,LOW(0)
000692 c035      	RJMP _0x2000036
                 _0x2000035:
000693 36e4      	CPI  R30,LOW(0x64)
000694 f011      	BREQ _0x2000039
000695 36e9      	CPI  R30,LOW(0x69)
000696 f411      	BRNE _0x200003A
                 _0x2000039:
000697 6004      	ORI  R16,LOW(4)
000698 c002      	RJMP _0x200003B
                 _0x200003A:
000699 37e5      	CPI  R30,LOW(0x75)
00069a f431      	BRNE _0x200003C
                 _0x200003B:
00069b e6e0      	LDI  R30,LOW(_tbl10_G100*2)
00069c e0f0      	LDI  R31,HIGH(_tbl10_G100*2)
00069d 83ee      	STD  Y+6,R30
00069e 83ff      	STD  Y+6+1,R31
00069f e015      	LDI  R17,LOW(5)
0006a0 c00d      	RJMP _0x200003D
                 _0x200003C:
0006a1 35e8      	CPI  R30,LOW(0x58)
0006a2 f411      	BRNE _0x200003F
0006a3 6008      	ORI  R16,LOW(8)
0006a4 c004      	RJMP _0x2000040
                 _0x200003F:
0006a5 37e8      	CPI  R30,LOW(0x78)
0006a6 f011      	BREQ PC+3
0006a7 940c 074a 	JMP _0x2000071
                 _0x2000040:
0006a9 e6ea      	LDI  R30,LOW(_tbl16_G100*2)
0006aa e0f0      	LDI  R31,HIGH(_tbl16_G100*2)
0006ab 83ee      	STD  Y+6,R30
0006ac 83ff      	STD  Y+6+1,R31
0006ad e014      	LDI  R17,LOW(4)
                 _0x200003D:
0006ae ff02      	SBRS R16,2
0006af c014      	RJMP _0x2000042
0006b0 940e 08f9 	CALL SUBOPT_0xE
0006b2 940e 0911 	CALL SUBOPT_0x11
0006b4 85ab      	LDD  R26,Y+11
0006b5 23aa      	TST  R26
0006b6 f43a      	BRPL _0x2000043
0006b7 85ea      	LDD  R30,Y+10
0006b8 85fb      	LDD  R31,Y+10+1
0006b9 940e 09c1 	CALL __ANEGW1
0006bb 87ea      	STD  Y+10,R30
0006bc 87fb      	STD  Y+10+1,R31
0006bd e24d      	LDI  R20,LOW(45)
                 _0x2000043:
0006be 3040      	CPI  R20,0
0006bf f011      	BREQ _0x2000044
0006c0 5f1f      	SUBI R17,-LOW(1)
0006c1 c001      	RJMP _0x2000045
                 _0x2000044:
0006c2 7f0b      	ANDI R16,LOW(251)
                 _0x2000045:
0006c3 c004      	RJMP _0x2000046
                 _0x2000042:
0006c4 940e 08f9 	CALL SUBOPT_0xE
0006c6 940e 0911 	CALL SUBOPT_0x11
                 _0x2000046:
                 _0x2000036:
0006c8 fd00      	SBRC R16,0
0006c9 c011      	RJMP _0x2000047
                 _0x2000048:
0006ca 1715      	CP   R17,R21
0006cb f478      	BRSH _0x200004A
0006cc ff07      	SBRS R16,7
0006cd c008      	RJMP _0x200004B
0006ce ff02      	SBRS R16,2
0006cf c004      	RJMP _0x200004C
0006d0 7f0b      	ANDI R16,LOW(251)
0006d1 2f24      	MOV  R18,R20
0006d2 5011      	SUBI R17,LOW(1)
0006d3 c001      	RJMP _0x200004D
                 _0x200004C:
0006d4 e320      	LDI  R18,LOW(48)
                 _0x200004D:
0006d5 c001      	RJMP _0x200004E
                 _0x200004B:
0006d6 e220      	LDI  R18,LOW(32)
                 _0x200004E:
0006d7 940e 08f0 	CALL SUBOPT_0xD
0006d9 5051      	SUBI R21,LOW(1)
0006da cfef      	RJMP _0x2000048
                 _0x200004A:
                 _0x2000047:
0006db 2f31      	MOV  R19,R17
0006dc ff01      	SBRS R16,1
0006dd c017      	RJMP _0x200004F
                 _0x2000050:
0006de 3030      	CPI  R19,0
0006df f0a1      	BREQ _0x2000052
0006e0 ff03      	SBRS R16,3
0006e1 c006      	RJMP _0x2000053
0006e2 81ee      	LDD  R30,Y+6
0006e3 81ff      	LDD  R31,Y+6+1
0006e4 9125      	LPM  R18,Z+
0006e5 83ee      	STD  Y+6,R30
0006e6 83ff      	STD  Y+6+1,R31
0006e7 c005      	RJMP _0x2000054
                 _0x2000053:
0006e8 81ae      	LDD  R26,Y+6
0006e9 81bf      	LDD  R27,Y+6+1
0006ea 912d      	LD   R18,X+
0006eb 83ae      	STD  Y+6,R26
0006ec 83bf      	STD  Y+6+1,R27
                 _0x2000054:
0006ed 940e 08f0 	CALL SUBOPT_0xD
0006ef 3050      	CPI  R21,0
0006f0 f009      	BREQ _0x2000055
0006f1 5051      	SUBI R21,LOW(1)
                 _0x2000055:
0006f2 5031      	SUBI R19,LOW(1)
0006f3 cfea      	RJMP _0x2000050
                 _0x2000052:
0006f4 c04b      	RJMP _0x2000056
                 _0x200004F:
                 _0x2000058:
0006f5 e320      	LDI  R18,LOW(48)
0006f6 81ee      	LDD  R30,Y+6
0006f7 81ff      	LDD  R31,Y+6+1
0006f8 940e 0a41 	CALL __GETW1PF
0006fa 87e8      	STD  Y+8,R30
0006fb 87f9      	STD  Y+8+1,R31
0006fc 81ee      	LDD  R30,Y+6
0006fd 81ff      	LDD  R31,Y+6+1
0006fe 9632      	ADIW R30,2
0006ff 83ee      	STD  Y+6,R30
000700 83ff      	STD  Y+6+1,R31
                 _0x200005A:
000701 85e8      	LDD  R30,Y+8
000702 85f9      	LDD  R31,Y+8+1
000703 85aa      	LDD  R26,Y+10
000704 85bb      	LDD  R27,Y+10+1
000705 17ae      	CP   R26,R30
000706 07bf      	CPC  R27,R31
000707 f050      	BRLO _0x200005C
000708 5f2f      	SUBI R18,-LOW(1)
000709 85a8      	LDD  R26,Y+8
00070a 85b9      	LDD  R27,Y+8+1
00070b 85ea      	LDD  R30,Y+10
00070c 85fb      	LDD  R31,Y+10+1
00070d 1bea      	SUB  R30,R26
00070e 0bfb      	SBC  R31,R27
00070f 87ea      	STD  Y+10,R30
000710 87fb      	STD  Y+10+1,R31
000711 cfef      	RJMP _0x200005A
                 _0x200005C:
000712 332a      	CPI  R18,58
000713 f028      	BRLO _0x200005D
000714 ff03      	SBRS R16,3
000715 c002      	RJMP _0x200005E
000716 5f29      	SUBI R18,-LOW(7)
000717 c001      	RJMP _0x200005F
                 _0x200005E:
000718 5d29      	SUBI R18,-LOW(39)
                 _0x200005F:
                 _0x200005D:
000719 fd04      	SBRC R16,4
00071a c01a      	RJMP _0x2000061
00071b 3321      	CPI  R18,49
00071c f420      	BRSH _0x2000063
00071d 85a8      	LDD  R26,Y+8
00071e 85b9      	LDD  R27,Y+8+1
00071f 9711      	SBIW R26,1
000720 f409      	BRNE _0x2000062
                 _0x2000063:
000721 c009      	RJMP _0x20000CA
                 _0x2000062:
000722 1753      	CP   R21,R19
000723 f010      	BRLO _0x2000067
000724 ff00      	SBRS R16,0
000725 c001      	RJMP _0x2000068
                 _0x2000067:
000726 c013      	RJMP _0x2000066
                 _0x2000068:
000727 e220      	LDI  R18,LOW(32)
000728 ff07      	SBRS R16,7
000729 c00b      	RJMP _0x2000069
00072a e320      	LDI  R18,LOW(48)
                 _0x20000CA:
00072b 6100      	ORI  R16,LOW(16)
00072c ff02      	SBRS R16,2
00072d c007      	RJMP _0x200006A
00072e 7f0b      	ANDI R16,LOW(251)
00072f 934a      	ST   -Y,R20
000730 940e 08ff 	CALL SUBOPT_0xF
000732 3050      	CPI  R21,0
000733 f009      	BREQ _0x200006B
000734 5051      	SUBI R21,LOW(1)
                 _0x200006B:
                 _0x200006A:
                 _0x2000069:
                 _0x2000061:
000735 940e 08f0 	CALL SUBOPT_0xD
000737 3050      	CPI  R21,0
000738 f009      	BREQ _0x200006C
000739 5051      	SUBI R21,LOW(1)
                 _0x200006C:
                 _0x2000066:
00073a 5031      	SUBI R19,LOW(1)
00073b 85a8      	LDD  R26,Y+8
00073c 85b9      	LDD  R27,Y+8+1
00073d 9712      	SBIW R26,2
00073e f008      	BRLO _0x2000059
00073f cfb5      	RJMP _0x2000058
                 _0x2000059:
                 _0x2000056:
000740 ff00      	SBRS R16,0
000741 c008      	RJMP _0x200006D
                 _0x200006E:
000742 3050      	CPI  R21,0
000743 f031      	BREQ _0x2000070
000744 5051      	SUBI R21,LOW(1)
000745 e2e0      	LDI  R30,LOW(32)
000746 93ea      	ST   -Y,R30
000747 940e 08ff 	CALL SUBOPT_0xF
000749 cff8      	RJMP _0x200006E
                 _0x2000070:
                 _0x200006D:
                 _0x2000071:
                 _0x2000030:
                 _0x20000C9:
00074a e010      	LDI  R17,LOW(0)
                 _0x200001B:
00074b cedd      	RJMP _0x2000016
                 _0x2000018:
00074c 85ac      	LDD  R26,Y+12
00074d 85bd      	LDD  R27,Y+12+1
00074e 940e 0a3d 	CALL __GETW1P
000750 940e 0a51 	CALL __LOADLOCR6
000752 9664      	ADIW R28,20
000753 9508      	RET
                 _printf:
000754 92ff      	PUSH R15
000755 2ef8      	MOV  R15,R24
000756 9726      	SBIW R28,6
000757 931a      	ST   -Y,R17
000758 930a      	ST   -Y,R16
000759 01de      	MOVW R26,R28
00075a 9614      	ADIW R26,4
00075b 940e 09bd 	CALL __ADDW2R15
00075d 018d      	MOVW R16,R26
00075e e0e0      	LDI  R30,LOW(0)
00075f 83ec      	STD  Y+4,R30
000760 83ed      	STD  Y+4+1,R30
000761 83ee      	STD  Y+6,R30
000762 83ef      	STD  Y+6+1,R30
000763 01de      	MOVW R26,R28
000764 9618      	ADIW R26,8
000765 940e 09bd 	CALL __ADDW2R15
000767 940e 0a3d 	CALL __GETW1P
000769 93fa      	ST   -Y,R31
00076a 93ea      	ST   -Y,R30
00076b 931a      	ST   -Y,R17
00076c 930a      	ST   -Y,R16
00076d e1e3      	LDI  R30,LOW(_put_usart_G100)
00076e e0f6      	LDI  R31,HIGH(_put_usart_G100)
00076f 93fa      	ST   -Y,R31
000770 93ea      	ST   -Y,R30
000771 01fe      	MOVW R30,R28
000772 9638      	ADIW R30,8
000773 93fa      	ST   -Y,R31
000774 93ea      	ST   -Y,R30
000775 dea9      	RCALL __print_G100
000776 8119      	LDD  R17,Y+1
000777 8108      	LDD  R16,Y+0
000778 9628      	ADIW R28,8
000779 90ff      	POP  R15
00077a 9508      	RET
                 	#ifndef __SLEEP_DEFINED__
                 	#endif
                 
                 	.DSEG
                 
                 	.CSEG
                 __lcd_write_nibble_G101:
00077b 81e8      	LD   R30,Y
00077c 71e0      	ANDI R30,LOW(0x10)
00077d f011      	BREQ _0x2020004
00077e 9adc      	SBI  0x1B,4
00077f c001      	RJMP _0x2020005
                 _0x2020004:
000780 98dc      	CBI  0x1B,4
                 _0x2020005:
000781 81e8      	LD   R30,Y
000782 72e0      	ANDI R30,LOW(0x20)
000783 f011      	BREQ _0x2020006
000784 9add      	SBI  0x1B,5
000785 c001      	RJMP _0x2020007
                 _0x2020006:
000786 98dd      	CBI  0x1B,5
                 _0x2020007:
000787 81e8      	LD   R30,Y
000788 74e0      	ANDI R30,LOW(0x40)
000789 f011      	BREQ _0x2020008
00078a 9ade      	SBI  0x1B,6
00078b c001      	RJMP _0x2020009
                 _0x2020008:
00078c 98de      	CBI  0x1B,6
                 _0x2020009:
00078d 81e8      	LD   R30,Y
00078e 78e0      	ANDI R30,LOW(0x80)
00078f f011      	BREQ _0x202000A
000790 9adf      	SBI  0x1B,7
000791 c001      	RJMP _0x202000B
                 _0x202000A:
000792 98df      	CBI  0x1B,7
                 _0x202000B:
                +
000793 e08a     +LDI R24 , LOW ( 10 )
                +__DELAY_USB_LOOP :
000794 958a     +DEC R24
000795 f7f1     +BRNE __DELAY_USB_LOOP
                 	__DELAY_USB 10
000796 9ada      	SBI  0x1B,2
                +
000797 e189     +LDI R24 , LOW ( 25 )
                +__DELAY_USB_LOOP :
000798 958a     +DEC R24
000799 f7f1     +BRNE __DELAY_USB_LOOP
                 	__DELAY_USB 25
00079a 98da      	CBI  0x1B,2
                +
00079b e189     +LDI R24 , LOW ( 25 )
                +__DELAY_USB_LOOP :
00079c 958a     +DEC R24
00079d f7f1     +BRNE __DELAY_USB_LOOP
                 	__DELAY_USB 25
00079e c07a      	RJMP _0x2100008
                 __lcd_write_data:
00079f 81e8      	LD   R30,Y
0007a0 93ea      	ST   -Y,R30
0007a1 dfd9      	RCALL __lcd_write_nibble_G101
0007a2 81e8          ld    r30,y
0007a3 95e2          swap  r30
0007a4 83e8          st    y,r30
0007a5 81e8      	LD   R30,Y
0007a6 93ea      	ST   -Y,R30
0007a7 dfd3      	RCALL __lcd_write_nibble_G101
                +
0007a8 ef86     +LDI R24 , LOW ( 246 )
                +__DELAY_USB_LOOP :
0007a9 958a     +DEC R24
0007aa f7f1     +BRNE __DELAY_USB_LOOP
                 	__DELAY_USB 246
0007ab c06d      	RJMP _0x2100008
                 _lcd_gotoxy:
0007ac 940e 08b7 	CALL SUBOPT_0x2
0007ae 5fe4      	SUBI R30,LOW(-__base_y_G101)
0007af 4ffc      	SBCI R31,HIGH(-__base_y_G101)
0007b0 81e0      	LD   R30,Z
0007b1 81a9      	LDD  R26,Y+1
0007b2 0fea      	ADD  R30,R26
0007b3 93ea      	ST   -Y,R30
0007b4 dfea      	RCALL __lcd_write_data
0007b5 8079      	LDD  R7,Y+1
0007b6 8068      	LDD  R6,Y+0
0007b7 c0c5      	RJMP _0x2100001
                 _lcd_clear:
0007b8 e0e2      	LDI  R30,LOW(2)
0007b9 940e 0919 	CALL SUBOPT_0x12
0007bb e0ec      	LDI  R30,LOW(12)
0007bc 93ea      	ST   -Y,R30
0007bd dfe1      	RCALL __lcd_write_data
0007be e0e1      	LDI  R30,LOW(1)
0007bf 940e 0919 	CALL SUBOPT_0x12
0007c1 e0e0      	LDI  R30,LOW(0)
0007c2 2e6e      	MOV  R6,R30
0007c3 2e7e      	MOV  R7,R30
0007c4 9508      	RET
                 _lcd_putchar:
0007c5 81a8      	LD   R26,Y
0007c6 30aa      	CPI  R26,LOW(0xA)
0007c7 f011      	BREQ _0x2020011
0007c8 1479      	CP   R7,R9
0007c9 f048      	BRLO _0x2020010
                 _0x2020011:
0007ca e0e0      	LDI  R30,LOW(0)
0007cb 93ea      	ST   -Y,R30
0007cc 9463      	INC  R6
0007cd 926a      	ST   -Y,R6
0007ce dfdd      	RCALL _lcd_gotoxy
0007cf 81a8      	LD   R26,Y
0007d0 30aa      	CPI  R26,LOW(0xA)
0007d1 f409      	BRNE _0x2020013
0007d2 c046      	RJMP _0x2100008
                 _0x2020013:
                 _0x2020010:
0007d3 9473      	INC  R7
0007d4 9ad8      	SBI  0x1B,0
0007d5 81e8      	LD   R30,Y
0007d6 93ea      	ST   -Y,R30
0007d7 dfc7      	RCALL __lcd_write_data
0007d8 98d8      	CBI  0x1B,0
0007d9 c03f      	RJMP _0x2100008
                 _lcd_puts:
0007da 931a      	ST   -Y,R17
                 _0x2020014:
0007db 81a9      	LDD  R26,Y+1
0007dc 81ba      	LDD  R27,Y+1+1
0007dd 91ed      	LD   R30,X+
0007de 83a9      	STD  Y+1,R26
0007df 83ba      	STD  Y+1+1,R27
0007e0 2f1e      	MOV  R17,R30
0007e1 30e0      	CPI  R30,0
0007e2 f019      	BREQ _0x2020016
0007e3 931a      	ST   -Y,R17
0007e4 dfe0      	RCALL _lcd_putchar
0007e5 cff5      	RJMP _0x2020014
                 _0x2020016:
0007e6 8118      	LDD  R17,Y+0
0007e7 c083      	RJMP _0x2100005
                 _lcd_init:
0007e8 9ad4      	SBI  0x1A,4
0007e9 9ad5      	SBI  0x1A,5
0007ea 9ad6      	SBI  0x1A,6
0007eb 9ad7      	SBI  0x1A,7
0007ec 9ad2      	SBI  0x1A,2
0007ed 9ad0      	SBI  0x1A,0
0007ee 9ad1      	SBI  0x1A,1
0007ef 98da      	CBI  0x1B,2
0007f0 98d8      	CBI  0x1B,0
0007f1 98d9      	CBI  0x1B,1
0007f2 8098      	LDD  R9,Y+0
0007f3 81e8      	LD   R30,Y
0007f4 58e0      	SUBI R30,-LOW(128)
                +
0007f5 93e0 030e+STS __base_y_G101 + ( 2 ) , R30
                 	__PUTB1MN __base_y_G101,2
0007f7 81e8      	LD   R30,Y
0007f8 54e0      	SUBI R30,-LOW(192)
                +
0007f9 93e0 030f+STS __base_y_G101 + ( 3 ) , R30
                 	__PUTB1MN __base_y_G101,3
0007fb e1e4      	LDI  R30,LOW(20)
0007fc e0f0      	LDI  R31,HIGH(20)
0007fd 940e 08a9 	CALL SUBOPT_0x0
0007ff 940e 091f 	CALL SUBOPT_0x13
000801 940e 091f 	CALL SUBOPT_0x13
000803 940e 091f 	CALL SUBOPT_0x13
000805 e2e0      	LDI  R30,LOW(32)
000806 93ea      	ST   -Y,R30
000807 df73      	RCALL __lcd_write_nibble_G101
                +
000808 e781     +LDI R24 , LOW ( 369 )
000809 e091     +LDI R25 , HIGH ( 369 )
                +__DELAY_USW_LOOP :
00080a 9701     +SBIW R24 , 1
00080b f7f1     +BRNE __DELAY_USW_LOOP
                 	__DELAY_USW 369
00080c e2e8      	LDI  R30,LOW(40)
00080d 93ea      	ST   -Y,R30
00080e df90      	RCALL __lcd_write_data
00080f e0e4      	LDI  R30,LOW(4)
000810 93ea      	ST   -Y,R30
000811 df8d      	RCALL __lcd_write_data
000812 e8e5      	LDI  R30,LOW(133)
000813 93ea      	ST   -Y,R30
000814 df8a      	RCALL __lcd_write_data
000815 e0e6      	LDI  R30,LOW(6)
000816 93ea      	ST   -Y,R30
000817 df87      	RCALL __lcd_write_data
000818 df9f      	RCALL _lcd_clear
                 _0x2100008:
000819 9621      	ADIW R28,1
00081a 9508      	RET
                 
                 	.CSEG
                 _rtc_init:
00081b 81ea      	LDD  R30,Y+2
00081c 70e3      	ANDI R30,LOW(0x3)
00081d 83ea      	STD  Y+2,R30
00081e 81e9      	LDD  R30,Y+1
00081f 30e0      	CPI  R30,0
000820 f019      	BREQ _0x2040003
000821 81ea      	LDD  R30,Y+2
000822 61e0      	ORI  R30,0x10
000823 83ea      	STD  Y+2,R30
                 _0x2040003:
000824 81e8      	LD   R30,Y
000825 30e0      	CPI  R30,0
000826 f019      	BREQ _0x2040004
000827 81ea      	LDD  R30,Y+2
000828 68e0      	ORI  R30,0x80
000829 83ea      	STD  Y+2,R30
                 _0x2040004:
00082a 940e 0928 	CALL SUBOPT_0x14
00082c e0e7      	LDI  R30,LOW(7)
00082d 940e 092e 	CALL SUBOPT_0x15
00082f c036      	RJMP _0x2100004
                 _rtc_get_time:
000830 940e 0928 	CALL SUBOPT_0x14
000832 e0e0      	LDI  R30,LOW(0)
000833 940e 0933 	CALL SUBOPT_0x16
000835 81a8      	LD   R26,Y
000836 81b9      	LDD  R27,Y+1
000837 940e 0943 	CALL SUBOPT_0x17
000839 81ac      	LDD  R26,Y+4
00083a 81bd      	LDD  R27,Y+4+1
00083b c017      	RJMP _0x2100006
                 _rtc_set_time:
00083c 940e 0928 	CALL SUBOPT_0x14
00083e e0e0      	LDI  R30,LOW(0)
00083f 93ea      	ST   -Y,R30
000840 940e 0998 	CALL _i2c_write
000842 81e8      	LD   R30,Y
000843 940e 0955 	CALL SUBOPT_0x18
000845 940e 092e 	CALL SUBOPT_0x15
000847 c01b      	RJMP _0x2100003
                 _rtc_get_date:
000848 940e 0928 	CALL SUBOPT_0x14
00084a e0e4      	LDI  R30,LOW(4)
00084b 940e 0933 	CALL SUBOPT_0x16
00084d 81ac      	LDD  R26,Y+4
00084e 81bd      	LDD  R27,Y+4+1
00084f 940e 0943 	CALL SUBOPT_0x17
000851 81a8      	LD   R26,Y
000852 81b9      	LDD  R27,Y+1
                 _0x2100006:
000853 93ec      	ST   X,R30
000854 940e 0973 	CALL _i2c_stop
                 _0x2100007:
000856 9626      	ADIW R28,6
000857 9508      	RET
                 _rtc_set_date:
000858 940e 0928 	CALL SUBOPT_0x14
00085a e0e4      	LDI  R30,LOW(4)
00085b 940e 092e 	CALL SUBOPT_0x15
00085d 940e 0955 	CALL SUBOPT_0x18
00085f 93ea      	ST   -Y,R30
000860 940e 0998 	CALL _i2c_write
000862 81e8      	LD   R30,Y
                 _0x2100003:
000863 93ea      	ST   -Y,R30
000864 940e 08a0 	CALL _bin2bcd
                 _0x2100004:
000866 93ea      	ST   -Y,R30
000867 940e 0998 	CALL _i2c_write
000869 940e 0973 	CALL _i2c_stop
                 _0x2100005:
00086b 9623      	ADIW R28,3
00086c 9508      	RET
                 
                 	.CSEG
                 
                 	.DSEG
                 
                 	.CSEG
                 _realloc:
00086d e0e0      	LDI  R30,LOW(0)
00086e e0f0      	LDI  R31,HIGH(0)
                 _0x2100002:
00086f 9624      	ADIW R28,4
000870 9508      	RET
                 _malloc:
000871 e0e0      	LDI  R30,LOW(0)
000872 e0f0      	LDI  R31,HIGH(0)
000873 c009      	RJMP _0x2100001
                 _free:
000874 81e8      	LD   R30,Y
000875 81f9      	LDD  R31,Y+1
000876 93fa      	ST   -Y,R31
000877 93ea      	ST   -Y,R30
000878 e0e0      	LDI  R30,LOW(0)
000879 e0f0      	LDI  R31,HIGH(0)
00087a 93fa      	ST   -Y,R31
00087b 93ea      	ST   -Y,R30
00087c dff0      	RCALL _realloc
                 _0x2100001:
00087d 9622      	ADIW R28,2
00087e 9508      	RET
                 
                 	.CSEG
                 
                 	.CSEG
                 _strlen:
00087f 91a9          ld   r26,y+
000880 91b9          ld   r27,y+
000881 27ee          clr  r30
000882 27ff          clr  r31
                 strlen0:
000883 916d          ld   r22,x+
000884 2366          tst  r22
000885 f011          breq strlen1
000886 9631          adiw r30,1
000887 cffb          rjmp strlen0
                 strlen1:
000888 9508          ret
                 _strlenf:
000889 27aa          clr  r26
00088a 27bb          clr  r27
00088b 91e9          ld   r30,y+
00088c 91f9          ld   r31,y+
                 strlenf0:
00088d 9005      	lpm  r0,z+
00088e 2000          tst  r0
00088f f011          breq strlenf1
000890 9611          adiw r26,1
000891 cffb          rjmp strlenf0
                 strlenf1:
000892 01fd          movw r30,r26
000893 9508          ret
                 
                 	.CSEG
                 _bcd2bin:
000894 81e8          ld   r30,y
000895 95e2          swap r30
000896 70ef          andi r30,0xf
000897 2fae          mov  r26,r30
000898 0faa          lsl  r26
000899 0faa          lsl  r26
00089a 0fea          add  r30,r26
00089b 0fee          lsl  r30
00089c 91a9          ld   r26,y+
00089d 70af          andi r26,0xf
00089e 0fea          add  r30,r26
00089f 9508          ret
                 _bin2bcd:
0008a0 91a9          ld   r26,y+
0008a1 27ee          clr  r30
                 bin2bcd0:
0008a2 50aa          subi r26,10
0008a3 f012          brmi bin2bcd1
0008a4 5fe0          subi r30,-16
0008a5 cffc          rjmp bin2bcd0
                 bin2bcd1:
0008a6 5fa6          subi r26,-10
0008a7 0fea          add  r30,r26
0008a8 9508          ret
                 
                 	.CSEG
                 
                 	.DSEG
                 _current_state_G001:
0002e4           	.BYTE 0x1
                 _password_G003:
0002e5           	.BYTE 0x4
                 _password_length_G003:
0002e9           	.BYTE 0x1
                 _data_length_G003:
0002ea           	.BYTE 0x1
                 _password_input_G003:
0002eb           	.BYTE 0x4
                 _data_input_G003:
0002ef           	.BYTE 0xF
                 _password_entry_active_G003:
0002fe           	.BYTE 0x1
                 _data_entry_active_G003:
0002ff           	.BYTE 0x1
                 _flag_tim1_G004:
000300           	.BYTE 0x1
                 _key_pressed_counter_S0050000000:
000301           	.BYTE 0x1
                 _key_released_counter_S0050000000:
000302           	.BYTE 0x1
                 _column_S0050000000:
000303           	.BYTE 0x1
                 _row_data_S0050000000:
000304           	.BYTE 0x2
                 _crt_key_S0050000000:
000306           	.BYTE 0x2
                 _password_result_S0050004000:
000308           	.BYTE 0x1
                 _data_result_S0050004000:
000309           	.BYTE 0x1
                 _flame_G008:
00030a           	.BYTE 0x1
                 _shock_G008:
00030b           	.BYTE 0x1
                 __base_y_G101:
00030c           	.BYTE 0x4
                 __seed_G103:
000310           	.BYTE 0x4
                 
                 	.CSEG
                 ;OPTIMIZER ADDED SUBROUTINE, CALLED 9 TIMES, CODE SIZE REDUCTION:13 WORDS
                 SUBOPT_0x0:
0008a9 93fa      	ST   -Y,R31
0008aa 93ea      	ST   -Y,R30
0008ab 940c 09b1 	JMP  _delay_ms
                 
                 ;OPTIMIZER ADDED SUBROUTINE, CALLED 2 TIMES, CODE SIZE REDUCTION:7 WORDS
                 SUBOPT_0x1:
0008ad 81e8      	LD   R30,Y
0008ae e0f0      	LDI  R31,0
0008af 9731      	SBIW R30,1
0008b0 0fee      	LSL  R30
0008b1 5fe9      	SUBI R30,-LOW(7)
0008b2 93ea      	ST   -Y,R30
0008b3 e0e1      	LDI  R30,LOW(1)
0008b4 93ea      	ST   -Y,R30
0008b5 940c 07ac 	JMP  _lcd_gotoxy
                 
                 ;OPTIMIZER ADDED SUBROUTINE, CALLED 3 TIMES, CODE SIZE REDUCTION:1 WORDS
                 SUBOPT_0x2:
0008b7 81e8      	LD   R30,Y
0008b8 e0f0      	LDI  R31,0
0008b9 9508      	RET
                 
                 ;OPTIMIZER ADDED SUBROUTINE, CALLED 13 TIMES, CODE SIZE REDUCTION:33 WORDS
                 SUBOPT_0x3:
0008ba 93ea      	ST   -Y,R30
0008bb e0e1      	LDI  R30,LOW(1)
0008bc 93ea      	ST   -Y,R30
0008bd 940c 07ac 	JMP  _lcd_gotoxy
                 
                 ;OPTIMIZER ADDED SUBROUTINE, CALLED 9 TIMES, CODE SIZE REDUCTION:37 WORDS
                 SUBOPT_0x4:
0008bf 93fa      	ST   -Y,R31
0008c0 93ea      	ST   -Y,R30
0008c1 940e 07da 	CALL _lcd_puts
0008c3 e0e0      	LDI  R30,LOW(0)
0008c4 cff5      	RJMP SUBOPT_0x3
                 
                 ;OPTIMIZER ADDED SUBROUTINE, CALLED 2 TIMES, CODE SIZE REDUCTION:2 WORDS
                 SUBOPT_0x5:
0008c5 91a0 02ea 	LDS  R26,_data_length_G003
0008c7 27bb      	CLR  R27
0008c8 e0e3      	LDI  R30,LOW(3)
0008c9 e0f0      	LDI  R31,HIGH(3)
0008ca 940e 0a2f 	CALL __MODW21
0008cc 9508      	RET
                 
                 ;OPTIMIZER ADDED SUBROUTINE, CALLED 10 TIMES, CODE SIZE REDUCTION:15 WORDS
                 SUBOPT_0x6:
0008cd e0f0      	LDI  R31,0
0008ce 97f0      	SBIW R30,48
0008cf 9508      	RET
                 
                 ;OPTIMIZER ADDED SUBROUTINE, CALLED 5 TIMES, CODE SIZE REDUCTION:5 WORDS
                 SUBOPT_0x7:
0008d0 e0aa      	LDI  R26,LOW(10)
0008d1 02ea      	MULS R30,R26
0008d2 01f0      	MOVW R30,R0
0008d3 2fae      	MOV  R26,R30
0008d4 9508      	RET
                 
                 ;OPTIMIZER ADDED SUBROUTINE, CALLED 3 TIMES, CODE SIZE REDUCTION:1 WORDS
                 SUBOPT_0x8:
0008d5 91e0 0304 	LDS  R30,_row_data_S0050000000
0008d7 91f0 0305 	LDS  R31,_row_data_S0050000000+1
0008d9 9508      	RET
                 
                 ;OPTIMIZER ADDED SUBROUTINE, CALLED 3 TIMES, CODE SIZE REDUCTION:5 WORDS
                 SUBOPT_0x9:
0008da 2fe3      	MOV  R30,R19
0008db e0f0      	LDI  R31,0
0008dc 5aec      	SUBI R30,LOW(-_keymap_G005*2)
0008dd 4fff      	SBCI R31,HIGH(-_keymap_G005*2)
0008de 9508      	RET
                 
                 ;OPTIMIZER ADDED SUBROUTINE, CALLED 3 TIMES, CODE SIZE REDUCTION:1 WORDS
                 SUBOPT_0xA:
0008df eee8      	LDI  R30,LOW(1000)
0008e0 e0f3      	LDI  R31,HIGH(1000)
0008e1 cfc7      	RJMP SUBOPT_0x0
                 
                 ;OPTIMIZER ADDED SUBROUTINE, CALLED 2 TIMES, CODE SIZE REDUCTION:3 WORDS
                 SUBOPT_0xB:
0008e2 e0e2      	LDI  R30,LOW(2)
0008e3 93ea      	ST   -Y,R30
0008e4 940e 0251 	CALL _LCDUpdate
0008e6 e0e2      	LDI  R30,LOW(2)
0008e7 93ea      	ST   -Y,R30
0008e8 940c 01de 	JMP  _SystemSetState
                 
                 ;OPTIMIZER ADDED SUBROUTINE, CALLED 7 TIMES, CODE SIZE REDUCTION:15 WORDS
                 SUBOPT_0xC:
0008ea 27ff      	CLR  R31
0008eb 2766      	CLR  R22
0008ec 2777      	CLR  R23
0008ed 940e 0a45 	CALL __PUTPARD1
0008ef 9508      	RET
                 
                 ;OPTIMIZER ADDED SUBROUTINE, CALLED 5 TIMES, CODE SIZE REDUCTION:21 WORDS
                 SUBOPT_0xD:
0008f0 932a      	ST   -Y,R18
0008f1 85ed      	LDD  R30,Y+13
0008f2 85fe      	LDD  R31,Y+13+1
0008f3 93fa      	ST   -Y,R31
0008f4 93ea      	ST   -Y,R30
0008f5 89e9      	LDD  R30,Y+17
0008f6 89fa      	LDD  R31,Y+17+1
0008f7 9509      	ICALL
0008f8 9508      	RET
                 
                 ;OPTIMIZER ADDED SUBROUTINE, CALLED 5 TIMES, CODE SIZE REDUCTION:9 WORDS
                 SUBOPT_0xE:
0008f9 89e8      	LDD  R30,Y+16
0008fa 89f9      	LDD  R31,Y+16+1
0008fb 9734      	SBIW R30,4
0008fc 8be8      	STD  Y+16,R30
0008fd 8bf9      	STD  Y+16+1,R31
0008fe 9508      	RET
                 
                 ;OPTIMIZER ADDED SUBROUTINE, CALLED 3 TIMES, CODE SIZE REDUCTION:7 WORDS
                 SUBOPT_0xF:
0008ff 85ed      	LDD  R30,Y+13
000900 85fe      	LDD  R31,Y+13+1
000901 93fa      	ST   -Y,R31
000902 93ea      	ST   -Y,R30
000903 89e9      	LDD  R30,Y+17
000904 89fa      	LDD  R31,Y+17+1
000905 9509      	ICALL
000906 9508      	RET
                 
                 ;OPTIMIZER ADDED SUBROUTINE, CALLED 2 TIMES, CODE SIZE REDUCTION:6 WORDS
                 SUBOPT_0x10:
000907 89a8      	LDD  R26,Y+16
000908 89b9      	LDD  R27,Y+16+1
000909 9614      	ADIW R26,4
00090a 940e 0a3d 	CALL __GETW1P
00090c 83ee      	STD  Y+6,R30
00090d 83ff      	STD  Y+6+1,R31
00090e 93fa      	ST   -Y,R31
00090f 93ea      	ST   -Y,R30
000910 9508      	RET
                 
                 ;OPTIMIZER ADDED SUBROUTINE, CALLED 2 TIMES, CODE SIZE REDUCTION:2 WORDS
                 SUBOPT_0x11:
000911 89a8      	LDD  R26,Y+16
000912 89b9      	LDD  R27,Y+16+1
000913 9614      	ADIW R26,4
000914 940e 0a3d 	CALL __GETW1P
000916 87ea      	STD  Y+10,R30
000917 87fb      	STD  Y+10+1,R31
000918 9508      	RET
                 
                 ;OPTIMIZER ADDED SUBROUTINE, CALLED 2 TIMES, CODE SIZE REDUCTION:2 WORDS
                 SUBOPT_0x12:
000919 93ea      	ST   -Y,R30
00091a 940e 079f 	CALL __lcd_write_data
00091c e0e3      	LDI  R30,LOW(3)
00091d e0f0      	LDI  R31,HIGH(3)
00091e cf8a      	RJMP SUBOPT_0x0
                 
                 ;OPTIMIZER ADDED SUBROUTINE, CALLED 3 TIMES, CODE SIZE REDUCTION:9 WORDS
                 SUBOPT_0x13:
00091f e3e0      	LDI  R30,LOW(48)
000920 93ea      	ST   -Y,R30
000921 940e 077b 	CALL __lcd_write_nibble_G101
                +
000923 e781     +LDI R24 , LOW ( 369 )
000924 e091     +LDI R25 , HIGH ( 369 )
                +__DELAY_USW_LOOP :
000925 9701     +SBIW R24 , 1
000926 f7f1     +BRNE __DELAY_USW_LOOP
                 	__DELAY_USW 369
000927 9508      	RET
                 
                 ;OPTIMIZER ADDED SUBROUTINE, CALLED 5 TIMES, CODE SIZE REDUCTION:13 WORDS
                 SUBOPT_0x14:
000928 940e 0964 	CALL _i2c_start
00092a ede0      	LDI  R30,LOW(208)
00092b 93ea      	ST   -Y,R30
00092c 940c 0998 	JMP  _i2c_write
                 
                 ;OPTIMIZER ADDED SUBROUTINE, CALLED 3 TIMES, CODE SIZE REDUCTION:1 WORDS
                 SUBOPT_0x15:
00092e 93ea      	ST   -Y,R30
00092f 940e 0998 	CALL _i2c_write
000931 81ea      	LDD  R30,Y+2
000932 9508      	RET
                 
                 ;OPTIMIZER ADDED SUBROUTINE, CALLED 2 TIMES, CODE SIZE REDUCTION:11 WORDS
                 SUBOPT_0x16:
000933 93ea      	ST   -Y,R30
000934 940e 0998 	CALL _i2c_write
000936 940e 0964 	CALL _i2c_start
000938 ede1      	LDI  R30,LOW(209)
000939 93ea      	ST   -Y,R30
00093a 940e 0998 	CALL _i2c_write
00093c e0e1      	LDI  R30,LOW(1)
00093d 93ea      	ST   -Y,R30
00093e 940e 097d 	CALL _i2c_read
000940 93ea      	ST   -Y,R30
000941 940c 0894 	JMP  _bcd2bin
                 
                 ;OPTIMIZER ADDED SUBROUTINE, CALLED 2 TIMES, CODE SIZE REDUCTION:13 WORDS
                 SUBOPT_0x17:
000943 93ec      	ST   X,R30
000944 e0e1      	LDI  R30,LOW(1)
000945 93ea      	ST   -Y,R30
000946 940e 097d 	CALL _i2c_read
000948 93ea      	ST   -Y,R30
000949 940e 0894 	CALL _bcd2bin
00094b 81aa      	LDD  R26,Y+2
00094c 81bb      	LDD  R27,Y+2+1
00094d 93ec      	ST   X,R30
00094e e0e0      	LDI  R30,LOW(0)
00094f 93ea      	ST   -Y,R30
000950 940e 097d 	CALL _i2c_read
000952 93ea      	ST   -Y,R30
000953 940c 0894 	JMP  _bcd2bin
                 
                 ;OPTIMIZER ADDED SUBROUTINE, CALLED 2 TIMES, CODE SIZE REDUCTION:5 WORDS
                 SUBOPT_0x18:
000955 93ea      	ST   -Y,R30
000956 940e 08a0 	CALL _bin2bcd
000958 93ea      	ST   -Y,R30
000959 940e 0998 	CALL _i2c_write
00095b 81e9      	LDD  R30,Y+1
00095c 93ea      	ST   -Y,R30
00095d 940c 08a0 	JMP  _bin2bcd
                 
                 
                 	.CSEG
                 	.equ __i2c_dir=__i2c_port-1
                 	.equ __i2c_pin=__i2c_port-2
                 _i2c_init:
00095f 98c4      	cbi  __i2c_port,__scl_bit
000960 98c3      	cbi  __i2c_port,__sda_bit
000961 9abc      	sbi  __i2c_dir,__scl_bit
000962 98bb      	cbi  __i2c_dir,__sda_bit
000963 c015      	rjmp __i2c_delay2
                 _i2c_start:
000964 98bb      	cbi  __i2c_dir,__sda_bit
000965 98bc      	cbi  __i2c_dir,__scl_bit
000966 27ee      	clr  r30
000967 0000      	nop
000968 9bb3      	sbis __i2c_pin,__sda_bit
000969 9508      	ret
00096a 9bb4      	sbis __i2c_pin,__scl_bit
00096b 9508      	ret
00096c d004      	rcall __i2c_delay1
00096d 9abb      	sbi  __i2c_dir,__sda_bit
00096e d002      	rcall __i2c_delay1
00096f 9abc      	sbi  __i2c_dir,__scl_bit
000970 e0e1      	ldi  r30,1
                 __i2c_delay1:
000971 e169      	ldi  r22,25
000972 c007      	rjmp __i2c_delay2l
                 _i2c_stop:
000973 9abb      	sbi  __i2c_dir,__sda_bit
000974 9abc      	sbi  __i2c_dir,__scl_bit
000975 d003      	rcall __i2c_delay2
000976 98bc      	cbi  __i2c_dir,__scl_bit
000977 dff9      	rcall __i2c_delay1
000978 98bb      	cbi  __i2c_dir,__sda_bit
                 __i2c_delay2:
000979 e361      	ldi  r22,49
                 __i2c_delay2l:
00097a 956a      	dec  r22
00097b f7f1      	brne __i2c_delay2l
00097c 9508      	ret
                 _i2c_read:
00097d e078      	ldi  r23,8
                 __i2c_read0:
00097e 98bc      	cbi  __i2c_dir,__scl_bit
00097f dff1      	rcall __i2c_delay1
                 __i2c_read3:
000980 9bb4      	sbis __i2c_pin,__scl_bit
000981 cffe      	rjmp __i2c_read3
000982 dfee      	rcall __i2c_delay1
000983 9488      	clc
000984 99b3      	sbic __i2c_pin,__sda_bit
000985 9408      	sec
000986 9abc      	sbi  __i2c_dir,__scl_bit
000987 dff1      	rcall __i2c_delay2
000988 1fee      	rol  r30
000989 957a      	dec  r23
00098a f799      	brne __i2c_read0
00098b 9179      	ld   r23,y+
00098c 2377      	tst  r23
00098d f411      	brne __i2c_read1
00098e 98bb      	cbi  __i2c_dir,__sda_bit
00098f c001      	rjmp __i2c_read2
                 __i2c_read1:
000990 9abb      	sbi  __i2c_dir,__sda_bit
                 __i2c_read2:
000991 dfdf      	rcall __i2c_delay1
000992 98bc      	cbi  __i2c_dir,__scl_bit
000993 dfe5      	rcall __i2c_delay2
000994 9abc      	sbi  __i2c_dir,__scl_bit
000995 dfdb      	rcall __i2c_delay1
000996 98bb      	cbi  __i2c_dir,__sda_bit
000997 cfd9      	rjmp __i2c_delay1
                 
                 _i2c_write:
000998 91e9      	ld   r30,y+
000999 e078      	ldi  r23,8
                 __i2c_write0:
00099a 0fee      	lsl  r30
00099b f410      	brcc __i2c_write1
00099c 98bb      	cbi  __i2c_dir,__sda_bit
00099d c001      	rjmp __i2c_write2
                 __i2c_write1:
00099e 9abb      	sbi  __i2c_dir,__sda_bit
                 __i2c_write2:
00099f dfd9      	rcall __i2c_delay2
0009a0 98bc      	cbi  __i2c_dir,__scl_bit
0009a1 dfcf      	rcall __i2c_delay1
                 __i2c_write3:
0009a2 9bb4      	sbis __i2c_pin,__scl_bit
0009a3 cffe      	rjmp __i2c_write3
0009a4 dfcc      	rcall __i2c_delay1
0009a5 9abc      	sbi  __i2c_dir,__scl_bit
0009a6 957a      	dec  r23
0009a7 f791      	brne __i2c_write0
0009a8 98bb      	cbi  __i2c_dir,__sda_bit
0009a9 dfc7      	rcall __i2c_delay1
0009aa 98bc      	cbi  __i2c_dir,__scl_bit
0009ab dfcd      	rcall __i2c_delay2
0009ac e0e1      	ldi  r30,1
0009ad 99b3      	sbic __i2c_pin,__sda_bit
0009ae 27ee      	clr  r30
0009af 9abc      	sbi  __i2c_dir,__scl_bit
0009b0 cfc0      	rjmp __i2c_delay1
                 
                 _delay_ms:
0009b1 91e9      	ld   r30,y+
0009b2 91f9      	ld   r31,y+
0009b3 9630      	adiw r30,0
0009b4 f039      	breq __delay_ms1
                 __delay_ms0:
                +
0009b5 e686     +LDI R24 , LOW ( 0xE66 )
0009b6 e09e     +LDI R25 , HIGH ( 0xE66 )
                +__DELAY_USW_LOOP :
0009b7 9701     +SBIW R24 , 1
0009b8 f7f1     +BRNE __DELAY_USW_LOOP
                 	__DELAY_USW 0xE66
0009b9 95a8      	wdr
0009ba 9731      	sbiw r30,1
0009bb f7c9      	brne __delay_ms0
                 __delay_ms1:
0009bc 9508      	ret
                 
                 __ADDW2R15:
0009bd 2400      	CLR  R0
0009be 0daf      	ADD  R26,R15
0009bf 1db0      	ADC  R27,R0
0009c0 9508      	RET
                 
                 __ANEGW1:
0009c1 95f1      	NEG  R31
0009c2 95e1      	NEG  R30
0009c3 40f0      	SBCI R31,0
0009c4 9508      	RET
                 
                 __LSLW12:
0009c5 23ee      	TST  R30
0009c6 2e0e      	MOV  R0,R30
0009c7 01fd      	MOVW R30,R26
0009c8 f021      	BREQ __LSLW12R
                 __LSLW12L:
0009c9 0fee      	LSL  R30
0009ca 1fff      	ROL  R31
0009cb 940a      	DEC  R0
0009cc f7e1      	BRNE __LSLW12L
                 __LSLW12R:
0009cd 9508      	RET
                 
                 __LSLW4:
0009ce 0fee      	LSL  R30
0009cf 1fff      	ROL  R31
                 __LSLW3:
0009d0 0fee      	LSL  R30
0009d1 1fff      	ROL  R31
                 __LSLW2:
0009d2 0fee      	LSL  R30
0009d3 1fff      	ROL  R31
0009d4 0fee      	LSL  R30
0009d5 1fff      	ROL  R31
0009d6 9508      	RET
                 
                 __MULD12U:
0009d7 9f7a      	MUL  R23,R26
0009d8 2d70      	MOV  R23,R0
0009d9 9f6b      	MUL  R22,R27
0009da 0d70      	ADD  R23,R0
0009db 9ff8      	MUL  R31,R24
0009dc 0d70      	ADD  R23,R0
0009dd 9fe9      	MUL  R30,R25
0009de 0d70      	ADD  R23,R0
0009df 9f6a      	MUL  R22,R26
0009e0 2d60      	MOV  R22,R0
0009e1 0d71      	ADD  R23,R1
0009e2 9ffb      	MUL  R31,R27
0009e3 0d60      	ADD  R22,R0
0009e4 1d71      	ADC  R23,R1
0009e5 9fe8      	MUL  R30,R24
0009e6 0d60      	ADD  R22,R0
0009e7 1d71      	ADC  R23,R1
0009e8 2788      	CLR  R24
0009e9 9ffa      	MUL  R31,R26
0009ea 2df0      	MOV  R31,R0
0009eb 0d61      	ADD  R22,R1
0009ec 1f78      	ADC  R23,R24
0009ed 9feb      	MUL  R30,R27
0009ee 0df0      	ADD  R31,R0
0009ef 1d61      	ADC  R22,R1
0009f0 1f78      	ADC  R23,R24
0009f1 9fea      	MUL  R30,R26
0009f2 2de0      	MOV  R30,R0
0009f3 0df1      	ADD  R31,R1
0009f4 1f68      	ADC  R22,R24
0009f5 1f78      	ADC  R23,R24
0009f6 9508      	RET
                 
                 __DIVW21U:
0009f7 2400      	CLR  R0
0009f8 2411      	CLR  R1
0009f9 e190      	LDI  R25,16
                 __DIVW21U1:
0009fa 0faa      	LSL  R26
0009fb 1fbb      	ROL  R27
0009fc 1c00      	ROL  R0
0009fd 1c11      	ROL  R1
0009fe 1a0e      	SUB  R0,R30
0009ff 0a1f      	SBC  R1,R31
000a00 f418      	BRCC __DIVW21U2
000a01 0e0e      	ADD  R0,R30
000a02 1e1f      	ADC  R1,R31
000a03 c001      	RJMP __DIVW21U3
                 __DIVW21U2:
000a04 60a1      	SBR  R26,1
                 __DIVW21U3:
000a05 959a      	DEC  R25
000a06 f799      	BRNE __DIVW21U1
000a07 01fd      	MOVW R30,R26
000a08 01d0      	MOVW R26,R0
000a09 9508      	RET
                 
                 __DIVD21U:
000a0a 933f      	PUSH R19
000a0b 934f      	PUSH R20
000a0c 935f      	PUSH R21
000a0d 2400      	CLR  R0
000a0e 2411      	CLR  R1
000a0f 2744      	CLR  R20
000a10 2755      	CLR  R21
000a11 e230      	LDI  R19,32
                 __DIVD21U1:
000a12 0faa      	LSL  R26
000a13 1fbb      	ROL  R27
000a14 1f88      	ROL  R24
000a15 1f99      	ROL  R25
000a16 1c00      	ROL  R0
000a17 1c11      	ROL  R1
000a18 1f44      	ROL  R20
000a19 1f55      	ROL  R21
000a1a 1a0e      	SUB  R0,R30
000a1b 0a1f      	SBC  R1,R31
000a1c 0b46      	SBC  R20,R22
000a1d 0b57      	SBC  R21,R23
000a1e f428      	BRCC __DIVD21U2
000a1f 0e0e      	ADD  R0,R30
000a20 1e1f      	ADC  R1,R31
000a21 1f46      	ADC  R20,R22
000a22 1f57      	ADC  R21,R23
000a23 c001      	RJMP __DIVD21U3
                 __DIVD21U2:
000a24 60a1      	SBR  R26,1
                 __DIVD21U3:
000a25 953a      	DEC  R19
000a26 f759      	BRNE __DIVD21U1
000a27 01fd      	MOVW R30,R26
000a28 01bc      	MOVW R22,R24
000a29 01d0      	MOVW R26,R0
000a2a 01ca      	MOVW R24,R20
000a2b 915f      	POP  R21
000a2c 914f      	POP  R20
000a2d 913f      	POP  R19
000a2e 9508      	RET
                 
                 __MODW21:
000a2f 94e8      	CLT
000a30 ffb7      	SBRS R27,7
000a31 c004      	RJMP __MODW211
000a32 95a0      	COM  R26
000a33 95b0      	COM  R27
000a34 9611      	ADIW R26,1
000a35 9468      	SET
                 __MODW211:
000a36 fdf7      	SBRC R31,7
000a37 df89      	RCALL __ANEGW1
000a38 dfbe      	RCALL __DIVW21U
000a39 01fd      	MOVW R30,R26
000a3a f40e      	BRTC __MODW212
000a3b df85      	RCALL __ANEGW1
                 __MODW212:
000a3c 9508      	RET
                 
                 __GETW1P:
000a3d 91ed      	LD   R30,X+
000a3e 91fc      	LD   R31,X
000a3f 9711      	SBIW R26,1
000a40 9508      	RET
                 
                 __GETW1PF:
000a41 9005      	LPM  R0,Z+
000a42 91f4      	LPM  R31,Z
000a43 2de0      	MOV  R30,R0
000a44 9508      	RET
                 
                 __PUTPARD1:
000a45 937a      	ST   -Y,R23
000a46 936a      	ST   -Y,R22
000a47 93fa      	ST   -Y,R31
000a48 93ea      	ST   -Y,R30
000a49 9508      	RET
                 
                 __SAVELOCR6:
000a4a 935a      	ST   -Y,R21
                 __SAVELOCR5:
000a4b 934a      	ST   -Y,R20
                 __SAVELOCR4:
000a4c 933a      	ST   -Y,R19
                 __SAVELOCR3:
000a4d 932a      	ST   -Y,R18
                 __SAVELOCR2:
000a4e 931a      	ST   -Y,R17
000a4f 930a      	ST   -Y,R16
000a50 9508      	RET
                 
                 __LOADLOCR6:
000a51 815d      	LDD  R21,Y+5
                 __LOADLOCR5:
000a52 814c      	LDD  R20,Y+4
                 __LOADLOCR4:
000a53 813b      	LDD  R19,Y+3
                 __LOADLOCR3:
000a54 812a      	LDD  R18,Y+2
                 __LOADLOCR2:
000a55 8119      	LDD  R17,Y+1
000a56 8108      	LD   R16,Y
000a57 9508      	RET
                 
                 ;END OF CODE MARKER
                 __END_OF_CODE:


RESOURCE USE INFORMATION
------------------------

Notice:
The register and instruction counts are symbol table hit counts,
and hence implicitly used resources are not counted, eg, the
'lpm' instruction without operands implicitly uses r0 and z,
none of which are counted.

x,y,z are separate entities in the symbol table and are
counted separately from r26..r31 here.

.dseg memory usage only counts static data declared with .byte

ATmega16 register use summary:
r0 :  36 r1 :  15 r2 :  13 r3 :   0 r4 :   3 r5 :   2 r6 :   4 r7 :   4 
r8 :   0 r9 :   2 r10:   0 r11:   0 r12:   0 r13:   0 r14:   0 r15:   4 
r16:  52 r17:  48 r18:  35 r19:  21 r20:  19 r21:  28 r22:  26 r23:  26 
r24:  38 r25:  12 r26: 180 r27:  45 r28:  22 r29:   1 r30: 636 r31: 185 
x  :  21 y  : 352 z  :  29 
Registers used: 28 out of 35 (80.0%)

ATmega16 instruction use summary:
.lds  :   0 .lds.l:   0 .sts  :   0 .sts.l:   0 adc   :  12 add   :  22 
adiw  :  29 and   :   2 andi  :  13 asr   :   1 bclr  :   0 bld   :   9 
brbc  :   0 brbs  :   0 brcc  :   3 brcs  :   0 break :   0 breq  :  37 
brge  :   0 brhc  :   0 brhs  :   0 brid  :   0 brie  :   0 brlo  :  12 
brlt  :   0 brmi  :   1 brne  :  67 brpl  :   1 brsh  :   6 brtc  :   1 
brts  :   0 brvc  :   0 brvs  :   0 bset  :   0 bst   :   0 call  : 189 
cbi   :  25 cbr   :   0 clc   :   1 clh   :   0 cli   :   1 cln   :   0 
clr   :  29 cls   :   0 clt   :   4 clv   :   0 clz   :   0 com   :   5 
cp    :   6 cpc   :  13 cpi   :  80 cpse  :   0 dec   :  11 des   :   0 
eor   :   0 fmul  :   0 fmuls :   0 fmulsu:   0 icall :   2 ijmp  :   0 
in    :  24 inc   :   2 jmp   :  53 ld    :  67 ldd   : 107 ldi   : 255 
lds   :  55 lpm   :  20 lsl   :  13 lsr   :   0 mov   :  35 movw  :  40 
mul   :  11 muls  :   1 mulsu :   0 neg   :   2 nop   :   1 or    :   2 
ori   :  19 out   :  38 pop   :   8 push  :   8 rcall :  56 ret   :  68 
reti  :   4 rjmp  : 119 rol   :  16 ror   :   1 sbc   :   5 sbci  :  10 
sbi   :  29 sbic  :   4 sbis  :   5 sbiw  :  26 sbr   :   2 sbrc  :   4 
sbrs  :  14 sec   :   1 seh   :   0 sei   :   1 sen   :   0 ser   :   0 
ses   :   0 set   :   7 sev   :   0 sez   :   0 sleep :   0 spm   :   0 
st    : 175 std   :  38 sts   :  34 sub   :   3 subi  :  36 swap  :   2 
tst   :   5 wdr   :   1 
Instructions used: 73 out of 116 (62.9%)

ATmega16 memory use summary [bytes]:
Segment   Begin    End      Code   Data   Used    Size   Use%
---------------------------------------------------------------
[.cseg] 0x000000 0x0014b0   4670    626   5296   16384  32.3%
[.dseg] 0x000060 0x000314      0    436    436    1119  39.0%
[.eseg] 0x000000 0x000000      0      0      0     512   0.0%

Assembly complete, 0 errors, 10 warnings
